EXPORTS 
	??_R0?AV?$_Func_base@AAVactor@play@kmint@@AAV?$unique_ptr@Vactor@play@kmint@@U?$default_delete@Vactor@play@kmint@@@std@@@std@@@std@@@8 	 DATA
	??_R0?AV?$_Func_base@ABVactor@play@kmint@@ABV?$unique_ptr@Vactor@play@kmint@@U?$default_delete@Vactor@play@kmint@@@std@@@std@@@std@@@8 	 DATA
	??_R0?AV?$_Func_impl_no_alloc@P6AAAVactor@play@kmint@@ABV?$unique_ptr@Vactor@play@kmint@@U?$default_delete@Vactor@play@kmint@@@std@@@std@@@ZAAV123@AAV45@@std@@@8 	 DATA
	??_R0?AV?$_Func_impl_no_alloc@P6AABVactor@play@kmint@@ABV?$unique_ptr@Vactor@play@kmint@@U?$default_delete@Vactor@play@kmint@@@std@@@std@@@ZABV123@ABV45@@std@@@8 	 DATA
	??_R0?AV?$_Iosb@H@std@@@8 	 DATA
	??_R0?AV?$basic_ios@DU?$char_traits@D@std@@@std@@@8 	 DATA
	??_R0?AV?$basic_istream@DU?$char_traits@D@std@@@std@@@8 	 DATA
	??_R0?AV?$basic_istringstream@DU?$char_traits@D@std@@V?$allocator@D@2@@std@@@8 	 DATA
	??_R0?AV?$basic_streambuf@DU?$char_traits@D@std@@@std@@@8 	 DATA
	??_R0?AV?$basic_stringbuf@DU?$char_traits@D@std@@V?$allocator@D@2@@std@@@8 	 DATA
	??_R0?AVbad_cast@std@@@8 	 DATA
	??_R0?AVexception@std@@@8 	 DATA
	??_R0?AVinitialization_error@ui@kmint@@@8 	 DATA
	??_R0?AVios_base@std@@@8 	 DATA
	??_R0?AVruntime_error@std@@@8 	 DATA
	??_R0P6AAAVactor@play@kmint@@ABV?$unique_ptr@Vactor@play@kmint@@U?$default_delete@Vactor@play@kmint@@@std@@@std@@@Z@8 	 DATA
	??_R0P6AABVactor@play@kmint@@ABV?$unique_ptr@Vactor@play@kmint@@U?$default_delete@Vactor@play@kmint@@@std@@@std@@@Z@8 	 DATA
	?_Psave@?$_Facetptr@V?$ctype@D@std@@@std@@2PBVfacet@locale@2@B 	 DATA
	??$?0$$V@?$_Compressed_pair@V?$allocator@D@std@@V?$_String_val@U?$_Simple_types@D@std@@@2@$00@std@@QAE@U_Zero_then_variadic_args_t@1@@Z
	??$?0$$V@?$_Compressed_pair@V?$allocator@D@std@@V?$_Vector_val@U?$_Simple_types@D@std@@@2@$00@std@@QAE@U_Zero_then_variadic_args_t@1@@Z
	??$?0$$V@?$_Compressed_pair@V?$allocator@U?$_Tree_node@U?$pair@$$CBDUtile_info@map@kmint@@@std@@PAX@std@@@std@@V?$_Tree_val@U?$_Tree_simple_types@U?$pair@$$CBDUtile_info@map@kmint@@@std@@@std@@@2@$00@std@@QAE@U_Zero_then_variadic_args_t@1@@Z
	??$?0$$V@?$_Compressed_pair@V?$allocator@U?$_Tree_node@U?$pair@$$CBV?$basic_string@DU?$char_traits@D@std@@V?$allocator@D@2@@std@@Vtexture@sdl@ui@kmint@@@std@@PAX@std@@@std@@V?$_Tree_val@U?$_Tree_simple_types@U?$pair@$$CBV?$basic_string@DU?$char_traits@D@std@@V?$allocator@D@2@@std@@Vtexture@sdl@ui@kmint@@@std@@@std@@@2@$00@std@@QAE@U_Zero_then_variadic_args_t@1@@Z
	??$?0$$V@?$_Compressed_pair@V?$allocator@V?$unique_ptr@V?$basic_edge@Umap_node_info@map@kmint@@@graph@kmint@@U?$default_delete@V?$basic_edge@Umap_node_info@map@kmint@@@graph@kmint@@@std@@@std@@@std@@V?$_Vector_val@U?$_Simple_types@V?$unique_ptr@V?$basic_edge@Umap_node_info@map@kmint@@@graph@kmint@@U?$default_delete@V?$basic_edge@Umap_node_info@map@kmint@@@graph@kmint@@@std@@@std@@@std@@@2@$00@std@@QAE@U_Zero_then_variadic_args_t@1@@Z
	??$?0$$V@?$_Compressed_pair@V?$allocator@V?$unique_ptr@V?$basic_edge@Uno_node_info@graph@kmint@@@graph@kmint@@U?$default_delete@V?$basic_edge@Uno_node_info@graph@kmint@@@graph@kmint@@@std@@@std@@@std@@V?$_Vector_val@U?$_Simple_types@V?$unique_ptr@V?$basic_edge@Uno_node_info@graph@kmint@@@graph@kmint@@U?$default_delete@V?$basic_edge@Uno_node_info@graph@kmint@@@graph@kmint@@@std@@@std@@@std@@@2@$00@std@@QAE@U_Zero_then_variadic_args_t@1@@Z
	??$?0$$V@?$_Compressed_pair@V?$allocator@V?$unique_ptr@V?$basic_node@Umap_node_info@map@kmint@@@graph@kmint@@U?$default_delete@V?$basic_node@Umap_node_info@map@kmint@@@graph@kmint@@@std@@@std@@@std@@V?$_Vector_val@U?$_Simple_types@V?$unique_ptr@V?$basic_node@Umap_node_info@map@kmint@@@graph@kmint@@U?$default_delete@V?$basic_node@Umap_node_info@map@kmint@@@graph@kmint@@@std@@@std@@@std@@@2@$00@std@@QAE@U_Zero_then_variadic_args_t@1@@Z
	??$?0$$V@?$_Compressed_pair@V?$allocator@V?$unique_ptr@V?$basic_node@Uno_node_info@graph@kmint@@@graph@kmint@@U?$default_delete@V?$basic_node@Uno_node_info@graph@kmint@@@graph@kmint@@@std@@@std@@@std@@V?$_Vector_val@U?$_Simple_types@V?$unique_ptr@V?$basic_node@Uno_node_info@graph@kmint@@@graph@kmint@@U?$default_delete@V?$basic_node@Uno_node_info@graph@kmint@@@graph@kmint@@@std@@@std@@@std@@@2@$00@std@@QAE@U_Zero_then_variadic_args_t@1@@Z
	??$?0AADAAUtile_info@map@kmint@@$0A@@?$pair@$$CBDUtile_info@map@kmint@@@std@@QAE@AADAAUtile_info@map@kmint@@@Z
	??$?0AAPAUSDL_Renderer@@@?$_Compressed_pair@V?$destroyer@USDL_Renderer@@@sdl@ui@kmint@@PAUSDL_Renderer@@$00@std@@QAE@U_Zero_then_variadic_args_t@1@AAPAUSDL_Renderer@@@Z
	??$?0AAPAUSDL_Surface@@@?$_Compressed_pair@V?$destroyer@USDL_Surface@@@sdl@ui@kmint@@PAUSDL_Surface@@$00@std@@QAE@U_Zero_then_variadic_args_t@1@AAPAUSDL_Surface@@@Z
	??$?0AAPAUSDL_Texture@@@?$_Compressed_pair@V?$destroyer@USDL_Texture@@@sdl@ui@kmint@@PAUSDL_Texture@@$00@std@@QAE@U_Zero_then_variadic_args_t@1@AAPAUSDL_Texture@@@Z
	??$?0AAPAUSDL_Window@@@?$_Compressed_pair@V?$destroyer@USDL_Window@@@sdl@ui@kmint@@PAUSDL_Window@@$00@std@@QAE@U_Zero_then_variadic_args_t@1@AAPAUSDL_Window@@@Z
	??$?0AAPAUimpl@frame@ui@kmint@@@?$_Compressed_pair@U?$default_delete@Uimpl@frame@ui@kmint@@@std@@PAUimpl@frame@ui@kmint@@$00@std@@QAE@U_Zero_then_variadic_args_t@1@AAPAUimpl@frame@ui@kmint@@@Z
	??$?0AAPAV?$basic_edge@Umap_node_info@map@kmint@@@graph@kmint@@@?$_Compressed_pair@U?$default_delete@V?$basic_edge@Umap_node_info@map@kmint@@@graph@kmint@@@std@@PAV?$basic_edge@Umap_node_info@map@kmint@@@graph@kmint@@$00@std@@QAE@U_Zero_then_variadic_args_t@1@AAPAV?$basic_edge@Umap_node_info@map@kmint@@@graph@kmint@@@Z
	??$?0AAPAV?$basic_edge@Uno_node_info@graph@kmint@@@graph@kmint@@@?$_Compressed_pair@U?$default_delete@V?$basic_edge@Uno_node_info@graph@kmint@@@graph@kmint@@@std@@PAV?$basic_edge@Uno_node_info@graph@kmint@@@graph@kmint@@$00@std@@QAE@U_Zero_then_variadic_args_t@1@AAPAV?$basic_edge@Uno_node_info@graph@kmint@@@graph@kmint@@@Z
	??$?0AAPAV?$basic_node@Umap_node_info@map@kmint@@@graph@kmint@@@?$_Compressed_pair@U?$default_delete@V?$basic_node@Umap_node_info@map@kmint@@@graph@kmint@@@std@@PAV?$basic_node@Umap_node_info@map@kmint@@@graph@kmint@@$00@std@@QAE@U_Zero_then_variadic_args_t@1@AAPAV?$basic_node@Umap_node_info@map@kmint@@@graph@kmint@@@Z
	??$?0AAPAV?$basic_node@Uno_node_info@graph@kmint@@@graph@kmint@@@?$_Compressed_pair@U?$default_delete@V?$basic_node@Uno_node_info@graph@kmint@@@graph@kmint@@@std@@PAV?$basic_node@Uno_node_info@graph@kmint@@@graph@kmint@@$00@std@@QAE@U_Zero_then_variadic_args_t@1@AAPAV?$basic_node@Uno_node_info@graph@kmint@@@graph@kmint@@@Z
	??$?0AAPAV_Facet_base@std@@@?$_Compressed_pair@U?$default_delete@V_Facet_base@std@@@std@@PAV_Facet_base@2@$00@std@@QAE@U_Zero_then_variadic_args_t@1@AAPAV_Facet_base@1@@Z
	??$?0AAPAVimpl@app@ui@kmint@@@?$_Compressed_pair@U?$default_delete@Vimpl@app@ui@kmint@@@std@@PAVimpl@app@ui@kmint@@$00@std@@QAE@U_Zero_then_variadic_args_t@1@AAPAVimpl@app@ui@kmint@@@Z
	??$?0AAPAVimpl@window@ui@kmint@@@?$_Compressed_pair@U?$default_delete@Vimpl@window@ui@kmint@@@std@@PAVimpl@window@ui@kmint@@$00@std@@QAE@U_Zero_then_variadic_args_t@1@AAPAVimpl@window@ui@kmint@@@Z
	??$?0AAV?$_Tree_iterator@V?$_Tree_val@U?$_Tree_simple_types@U?$pair@$$CBDUtile_info@map@kmint@@@std@@@std@@@std@@@std@@_N$0A@@?$pair@V?$_Tree_iterator@V?$_Tree_val@U?$_Tree_simple_types@U?$pair@$$CBDUtile_info@map@kmint@@@std@@@std@@@std@@@std@@_N@std@@QAE@AAV?$_Tree_iterator@V?$_Tree_val@U?$_Tree_simple_types@U?$pair@$$CBDUtile_info@map@kmint@@@std@@@std@@@std@@@1@$$QA_N@Z
	??$?0AAV?$_Tree_iterator@V?$_Tree_val@U?$_Tree_simple_types@U?$pair@$$CBV?$basic_string@DU?$char_traits@D@std@@V?$allocator@D@2@@std@@Vtexture@sdl@ui@kmint@@@std@@@std@@@std@@@std@@_N$0A@@?$pair@V?$_Tree_iterator@V?$_Tree_val@U?$_Tree_simple_types@U?$pair@$$CBV?$basic_string@DU?$char_traits@D@std@@V?$allocator@D@2@@std@@Vtexture@sdl@ui@kmint@@@std@@@std@@@std@@@std@@_N@std@@QAE@AAV?$_Tree_iterator@V?$_Tree_val@U?$_Tree_simple_types@U?$pair@$$CBV?$basic_string@DU?$char_traits@D@std@@V?$allocator@D@2@@std@@Vtexture@sdl@ui@kmint@@@std@@@std@@@std@@@1@$$QA_N@Z
	??$?0ABQ6AAAVactor@play@kmint@@ABV?$unique_ptr@Vactor@play@kmint@@U?$default_delete@Vactor@play@kmint@@@std@@@std@@@ZX@?$_Func_impl_no_alloc@P6AAAVactor@play@kmint@@ABV?$unique_ptr@Vactor@play@kmint@@U?$default_delete@Vactor@play@kmint@@@std@@@std@@@ZAAV123@AAV45@@std@@QAE@ABQ6AAAVactor@play@kmint@@ABV?$unique_ptr@Vactor@play@kmint@@U?$default_delete@Vactor@play@kmint@@@std@@@1@@Z@Z
	??$?0ABQ6AABVactor@play@kmint@@ABV?$unique_ptr@Vactor@play@kmint@@U?$default_delete@Vactor@play@kmint@@@std@@@std@@@ZX@?$_Func_impl_no_alloc@P6AABVactor@play@kmint@@ABV?$unique_ptr@Vactor@play@kmint@@U?$default_delete@Vactor@play@kmint@@@std@@@std@@@ZABV123@ABV45@@std@@QAE@ABQ6AABVactor@play@kmint@@ABV?$unique_ptr@Vactor@play@kmint@@U?$default_delete@Vactor@play@kmint@@@std@@@1@@Z@Z
	??$?0ABU?$less@D@std@@U_One_then_variadic_args_t@1@V?$allocator@U?$_Tree_node@U?$pair@$$CBDUtile_info@map@kmint@@@std@@PAX@std@@@1@@?$_Compressed_pair@U?$less@D@std@@V?$_Compressed_pair@V?$allocator@U?$_Tree_node@U?$pair@$$CBDUtile_info@map@kmint@@@std@@PAX@std@@@std@@V?$_Tree_val@U?$_Tree_simple_types@U?$pair@$$CBDUtile_info@map@kmint@@@std@@@std@@@2@$00@2@$00@std@@QAE@U_One_then_variadic_args_t@1@ABU?$less@D@1@$$QAU21@$$QAV?$allocator@U?$_Tree_node@U?$pair@$$CBDUtile_info@map@kmint@@@std@@PAX@std@@@1@@Z
	??$?0ABU?$less@D@std@@U_Zero_then_variadic_args_t@1@@?$_Compressed_pair@U?$less@D@std@@V?$_Compressed_pair@V?$allocator@U?$_Tree_node@U?$pair@$$CBDUtile_info@map@kmint@@@std@@PAX@std@@@std@@V?$_Tree_val@U?$_Tree_simple_types@U?$pair@$$CBDUtile_info@map@kmint@@@std@@@std@@@2@$00@2@$00@std@@QAE@U_One_then_variadic_args_t@1@ABU?$less@D@1@$$QAU_Zero_then_variadic_args_t@1@@Z
	??$?0ABU?$less@V?$basic_string@DU?$char_traits@D@std@@V?$allocator@D@2@@std@@@std@@U_Zero_then_variadic_args_t@1@@?$_Compressed_pair@U?$less@V?$basic_string@DU?$char_traits@D@std@@V?$allocator@D@2@@std@@@std@@V?$_Compressed_pair@V?$allocator@U?$_Tree_node@U?$pair@$$CBV?$basic_string@DU?$char_traits@D@std@@V?$allocator@D@2@@std@@Vtexture@sdl@ui@kmint@@@std@@PAX@std@@@std@@V?$_Tree_val@U?$_Tree_simple_types@U?$pair@$$CBV?$basic_string@DU?$char_traits@D@std@@V?$allocator@D@2@@std@@Vtexture@sdl@ui@kmint@@@std@@@std@@@2@$00@2@$00@std@@QAE@U_One_then_variadic_args_t@1@ABU?$less@V?$basic_string@DU?$char_traits@D@std@@V?$allocator@D@2@@std@@@1@$$QAU_Zero_then_variadic_args_t@1@@Z
	??$?0ABV?$allocator@H@std@@$$V@?$_Compressed_pair@V?$allocator@H@std@@V?$_Vector_val@U?$_Simple_types@H@std@@@2@$00@std@@QAE@U_One_then_variadic_args_t@1@ABV?$allocator@H@1@@Z
	??$?0ABV?$allocator@H@std@@X@?$_Vector_alloc@U?$_Vec_base_types@HV?$allocator@H@std@@@std@@@std@@QAE@ABV?$allocator@H@1@@Z
	??$?0ABV?$basic_string@DU?$char_traits@D@std@@V?$allocator@D@2@@std@@Vtexture@sdl@ui@kmint@@$0A@@?$pair@V?$basic_string@DU?$char_traits@D@std@@V?$allocator@D@2@@std@@Vtexture@sdl@ui@kmint@@@std@@QAE@ABV?$basic_string@DU?$char_traits@D@std@@V?$allocator@D@2@@1@$$QAVtexture@sdl@ui@kmint@@@Z
	??$?0D@?$allocator@U_Container_proxy@std@@@std@@QAE@ABV?$allocator@D@1@@Z
	??$?0H@?$allocator@U_Container_proxy@std@@@std@@QAE@ABV?$allocator@H@1@@Z
	??$?0P6AAAVactor@play@kmint@@ABV?$unique_ptr@Vactor@play@kmint@@U?$default_delete@Vactor@play@kmint@@@std@@@std@@@ZX@?$_Func_impl_no_alloc@P6AAAVactor@play@kmint@@ABV?$unique_ptr@Vactor@play@kmint@@U?$default_delete@Vactor@play@kmint@@@std@@@std@@@ZAAV123@AAV45@@std@@QAE@$$QAP6AAAVactor@play@kmint@@ABV?$unique_ptr@Vactor@play@kmint@@U?$default_delete@Vactor@play@kmint@@@std@@@1@@Z@Z
	??$?0P6AAAVactor@play@kmint@@ABV?$unique_ptr@Vactor@play@kmint@@U?$default_delete@Vactor@play@kmint@@@std@@@std@@@ZX@?$function@$$A6AAAVactor@play@kmint@@AAV?$unique_ptr@Vactor@play@kmint@@U?$default_delete@Vactor@play@kmint@@@std@@@std@@@Z@std@@QAE@P6AAAVactor@play@kmint@@ABV?$unique_ptr@Vactor@play@kmint@@U?$default_delete@Vactor@play@kmint@@@std@@@1@@Z@Z
	??$?0P6AABVactor@play@kmint@@ABV?$unique_ptr@Vactor@play@kmint@@U?$default_delete@Vactor@play@kmint@@@std@@@std@@@ZX@?$_Func_impl_no_alloc@P6AABVactor@play@kmint@@ABV?$unique_ptr@Vactor@play@kmint@@U?$default_delete@Vactor@play@kmint@@@std@@@std@@@ZABV123@ABV45@@std@@QAE@$$QAP6AABVactor@play@kmint@@ABV?$unique_ptr@Vactor@play@kmint@@U?$default_delete@Vactor@play@kmint@@@std@@@1@@Z@Z
	??$?0P6AABVactor@play@kmint@@ABV?$unique_ptr@Vactor@play@kmint@@U?$default_delete@Vactor@play@kmint@@@std@@@std@@@ZX@?$function@$$A6AABVactor@play@kmint@@ABV?$unique_ptr@Vactor@play@kmint@@U?$default_delete@Vactor@play@kmint@@@std@@@std@@@Z@std@@QAE@P6AABVactor@play@kmint@@ABV?$unique_ptr@Vactor@play@kmint@@U?$default_delete@Vactor@play@kmint@@@std@@@1@@Z@Z
	??$?0PAUSDL_Renderer@@@?$_Unique_ptr_base@USDL_Renderer@@V?$destroyer@USDL_Renderer@@@sdl@ui@kmint@@@std@@QAE@PAUSDL_Renderer@@@Z
	??$?0PAUSDL_Surface@@@?$_Unique_ptr_base@USDL_Surface@@V?$destroyer@USDL_Surface@@@sdl@ui@kmint@@@std@@QAE@PAUSDL_Surface@@@Z
	??$?0PAUSDL_Texture@@@?$_Unique_ptr_base@USDL_Texture@@V?$destroyer@USDL_Texture@@@sdl@ui@kmint@@@std@@QAE@PAUSDL_Texture@@@Z
	??$?0PAUSDL_Texture@@V?$destroyer@USDL_Texture@@@sdl@ui@kmint@@@?$_Unique_ptr_base@USDL_Texture@@V?$destroyer@USDL_Texture@@@sdl@ui@kmint@@@std@@QAE@PAUSDL_Texture@@$$QAV?$destroyer@USDL_Texture@@@sdl@ui@kmint@@@Z
	??$?0PAUSDL_Window@@@?$_Unique_ptr_base@USDL_Window@@V?$destroyer@USDL_Window@@@sdl@ui@kmint@@@std@@QAE@PAUSDL_Window@@@Z
	??$?0PAUimpl@frame@ui@kmint@@@?$_Unique_ptr_base@Uimpl@frame@ui@kmint@@U?$default_delete@Uimpl@frame@ui@kmint@@@std@@@std@@QAE@PAUimpl@frame@ui@kmint@@@Z
	??$?0PAUimpl@frame@ui@kmint@@U?$default_delete@Uimpl@frame@ui@kmint@@@std@@@?$_Unique_ptr_base@Uimpl@frame@ui@kmint@@U?$default_delete@Uimpl@frame@ui@kmint@@@std@@@std@@QAE@PAUimpl@frame@ui@kmint@@$$QAU?$default_delete@Uimpl@frame@ui@kmint@@@1@@Z
	??$?0PAV?$basic_edge@Umap_node_info@map@kmint@@@graph@kmint@@@?$_Unique_ptr_base@V?$basic_edge@Umap_node_info@map@kmint@@@graph@kmint@@U?$default_delete@V?$basic_edge@Umap_node_info@map@kmint@@@graph@kmint@@@std@@@std@@QAE@PAV?$basic_edge@Umap_node_info@map@kmint@@@graph@kmint@@@Z
	??$?0PAV?$basic_edge@Umap_node_info@map@kmint@@@graph@kmint@@U?$default_delete@V?$basic_edge@Umap_node_info@map@kmint@@@graph@kmint@@@std@@@?$_Unique_ptr_base@V?$basic_edge@Umap_node_info@map@kmint@@@graph@kmint@@U?$default_delete@V?$basic_edge@Umap_node_info@map@kmint@@@graph@kmint@@@std@@@std@@QAE@PAV?$basic_edge@Umap_node_info@map@kmint@@@graph@kmint@@$$QAU?$default_delete@V?$basic_edge@Umap_node_info@map@kmint@@@graph@kmint@@@1@@Z
	??$?0PAV?$basic_edge@Uno_node_info@graph@kmint@@@graph@kmint@@@?$_Unique_ptr_base@V?$basic_edge@Uno_node_info@graph@kmint@@@graph@kmint@@U?$default_delete@V?$basic_edge@Uno_node_info@graph@kmint@@@graph@kmint@@@std@@@std@@QAE@PAV?$basic_edge@Uno_node_info@graph@kmint@@@graph@kmint@@@Z
	??$?0PAV?$basic_edge@Uno_node_info@graph@kmint@@@graph@kmint@@U?$default_delete@V?$basic_edge@Uno_node_info@graph@kmint@@@graph@kmint@@@std@@@?$_Unique_ptr_base@V?$basic_edge@Uno_node_info@graph@kmint@@@graph@kmint@@U?$default_delete@V?$basic_edge@Uno_node_info@graph@kmint@@@graph@kmint@@@std@@@std@@QAE@PAV?$basic_edge@Uno_node_info@graph@kmint@@@graph@kmint@@$$QAU?$default_delete@V?$basic_edge@Uno_node_info@graph@kmint@@@graph@kmint@@@1@@Z
	??$?0PAV?$basic_node@Umap_node_info@map@kmint@@@graph@kmint@@@?$_Unique_ptr_base@V?$basic_node@Umap_node_info@map@kmint@@@graph@kmint@@U?$default_delete@V?$basic_node@Umap_node_info@map@kmint@@@graph@kmint@@@std@@@std@@QAE@PAV?$basic_node@Umap_node_info@map@kmint@@@graph@kmint@@@Z
	??$?0PAV?$basic_node@Umap_node_info@map@kmint@@@graph@kmint@@U?$default_delete@V?$basic_node@Umap_node_info@map@kmint@@@graph@kmint@@@std@@@?$_Unique_ptr_base@V?$basic_node@Umap_node_info@map@kmint@@@graph@kmint@@U?$default_delete@V?$basic_node@Umap_node_info@map@kmint@@@graph@kmint@@@std@@@std@@QAE@PAV?$basic_node@Umap_node_info@map@kmint@@@graph@kmint@@$$QAU?$default_delete@V?$basic_node@Umap_node_info@map@kmint@@@graph@kmint@@@1@@Z
	??$?0PAV?$basic_node@Uno_node_info@graph@kmint@@@graph@kmint@@@?$_Unique_ptr_base@V?$basic_node@Uno_node_info@graph@kmint@@@graph@kmint@@U?$default_delete@V?$basic_node@Uno_node_info@graph@kmint@@@graph@kmint@@@std@@@std@@QAE@PAV?$basic_node@Uno_node_info@graph@kmint@@@graph@kmint@@@Z
	??$?0PAV?$basic_node@Uno_node_info@graph@kmint@@@graph@kmint@@U?$default_delete@V?$basic_node@Uno_node_info@graph@kmint@@@graph@kmint@@@std@@@?$_Unique_ptr_base@V?$basic_node@Uno_node_info@graph@kmint@@@graph@kmint@@U?$default_delete@V?$basic_node@Uno_node_info@graph@kmint@@@graph@kmint@@@std@@@std@@QAE@PAV?$basic_node@Uno_node_info@graph@kmint@@@graph@kmint@@$$QAU?$default_delete@V?$basic_node@Uno_node_info@graph@kmint@@@graph@kmint@@@1@@Z
	??$?0PAV_Facet_base@std@@@?$_Unique_ptr_base@V_Facet_base@std@@U?$default_delete@V_Facet_base@std@@@2@@std@@QAE@PAV_Facet_base@1@@Z
	??$?0PAVimpl@app@ui@kmint@@@?$_Unique_ptr_base@Vimpl@app@ui@kmint@@U?$default_delete@Vimpl@app@ui@kmint@@@std@@@std@@QAE@PAVimpl@app@ui@kmint@@@Z
	??$?0PAVimpl@app@ui@kmint@@U?$default_delete@Vimpl@app@ui@kmint@@@std@@@?$_Unique_ptr_base@Vimpl@app@ui@kmint@@U?$default_delete@Vimpl@app@ui@kmint@@@std@@@std@@QAE@PAVimpl@app@ui@kmint@@$$QAU?$default_delete@Vimpl@app@ui@kmint@@@1@@Z
	??$?0PAVimpl@window@ui@kmint@@@?$_Unique_ptr_base@Vimpl@window@ui@kmint@@U?$default_delete@Vimpl@window@ui@kmint@@@std@@@std@@QAE@PAVimpl@window@ui@kmint@@@Z
	??$?0PAVimpl@window@ui@kmint@@U?$default_delete@Vimpl@window@ui@kmint@@@std@@@?$_Unique_ptr_base@Vimpl@window@ui@kmint@@U?$default_delete@Vimpl@window@ui@kmint@@@std@@@std@@QAE@PAVimpl@window@ui@kmint@@$$QAU?$default_delete@Vimpl@window@ui@kmint@@@1@@Z
	??$?0U?$_Tree_node@U?$pair@$$CBDUtile_info@map@kmint@@@std@@PAX@std@@@?$allocator@U_Container_proxy@std@@@std@@QAE@ABV?$allocator@U?$_Tree_node@U?$pair@$$CBDUtile_info@map@kmint@@@std@@PAX@std@@@1@@Z
	??$?0U?$_Tree_node@U?$pair@$$CBV?$basic_string@DU?$char_traits@D@std@@V?$allocator@D@2@@std@@Vtexture@sdl@ui@kmint@@@std@@PAX@std@@@?$allocator@U_Container_proxy@std@@@std@@QAE@ABV?$allocator@U?$_Tree_node@U?$pair@$$CBV?$basic_string@DU?$char_traits@D@std@@V?$allocator@D@2@@std@@Vtexture@sdl@ui@kmint@@@std@@PAX@std@@@1@@Z
	??$?0U?$default_delete@Uimpl@frame@ui@kmint@@@std@@$0A@@?$unique_ptr@Uimpl@frame@ui@kmint@@U?$default_delete@Uimpl@frame@ui@kmint@@@std@@@std@@QAE@PAUimpl@frame@ui@kmint@@@Z
	??$?0U?$default_delete@Uimpl@frame@ui@kmint@@@std@@AAPAUimpl@frame@ui@kmint@@@?$_Compressed_pair@U?$default_delete@Uimpl@frame@ui@kmint@@@std@@PAUimpl@frame@ui@kmint@@$00@std@@QAE@U_One_then_variadic_args_t@1@$$QAU?$default_delete@Uimpl@frame@ui@kmint@@@1@AAPAUimpl@frame@ui@kmint@@@Z
	??$?0U?$default_delete@V?$basic_edge@Umap_node_info@map@kmint@@@graph@kmint@@@std@@$0A@@?$unique_ptr@V?$basic_edge@Umap_node_info@map@kmint@@@graph@kmint@@U?$default_delete@V?$basic_edge@Umap_node_info@map@kmint@@@graph@kmint@@@std@@@std@@QAE@PAV?$basic_edge@Umap_node_info@map@kmint@@@graph@kmint@@@Z
	??$?0U?$default_delete@V?$basic_edge@Umap_node_info@map@kmint@@@graph@kmint@@@std@@AAPAV?$basic_edge@Umap_node_info@map@kmint@@@graph@kmint@@@?$_Compressed_pair@U?$default_delete@V?$basic_edge@Umap_node_info@map@kmint@@@graph@kmint@@@std@@PAV?$basic_edge@Umap_node_info@map@kmint@@@graph@kmint@@$00@std@@QAE@U_One_then_variadic_args_t@1@$$QAU?$default_delete@V?$basic_edge@Umap_node_info@map@kmint@@@graph@kmint@@@1@AAPAV?$basic_edge@Umap_node_info@map@kmint@@@graph@kmint@@@Z
	??$?0U?$default_delete@V?$basic_edge@Uno_node_info@graph@kmint@@@graph@kmint@@@std@@$0A@@?$unique_ptr@V?$basic_edge@Uno_node_info@graph@kmint@@@graph@kmint@@U?$default_delete@V?$basic_edge@Uno_node_info@graph@kmint@@@graph@kmint@@@std@@@std@@QAE@PAV?$basic_edge@Uno_node_info@graph@kmint@@@graph@kmint@@@Z
	??$?0U?$default_delete@V?$basic_edge@Uno_node_info@graph@kmint@@@graph@kmint@@@std@@AAPAV?$basic_edge@Uno_node_info@graph@kmint@@@graph@kmint@@@?$_Compressed_pair@U?$default_delete@V?$basic_edge@Uno_node_info@graph@kmint@@@graph@kmint@@@std@@PAV?$basic_edge@Uno_node_info@graph@kmint@@@graph@kmint@@$00@std@@QAE@U_One_then_variadic_args_t@1@$$QAU?$default_delete@V?$basic_edge@Uno_node_info@graph@kmint@@@graph@kmint@@@1@AAPAV?$basic_edge@Uno_node_info@graph@kmint@@@graph@kmint@@@Z
	??$?0U?$default_delete@V?$basic_node@Umap_node_info@map@kmint@@@graph@kmint@@@std@@$0A@@?$unique_ptr@V?$basic_node@Umap_node_info@map@kmint@@@graph@kmint@@U?$default_delete@V?$basic_node@Umap_node_info@map@kmint@@@graph@kmint@@@std@@@std@@QAE@PAV?$basic_node@Umap_node_info@map@kmint@@@graph@kmint@@@Z
	??$?0U?$default_delete@V?$basic_node@Umap_node_info@map@kmint@@@graph@kmint@@@std@@AAPAV?$basic_node@Umap_node_info@map@kmint@@@graph@kmint@@@?$_Compressed_pair@U?$default_delete@V?$basic_node@Umap_node_info@map@kmint@@@graph@kmint@@@std@@PAV?$basic_node@Umap_node_info@map@kmint@@@graph@kmint@@$00@std@@QAE@U_One_then_variadic_args_t@1@$$QAU?$default_delete@V?$basic_node@Umap_node_info@map@kmint@@@graph@kmint@@@1@AAPAV?$basic_node@Umap_node_info@map@kmint@@@graph@kmint@@@Z
	??$?0U?$default_delete@V?$basic_node@Uno_node_info@graph@kmint@@@graph@kmint@@@std@@$0A@@?$unique_ptr@V?$basic_node@Uno_node_info@graph@kmint@@@graph@kmint@@U?$default_delete@V?$basic_node@Uno_node_info@graph@kmint@@@graph@kmint@@@std@@@std@@QAE@PAV?$basic_node@Uno_node_info@graph@kmint@@@graph@kmint@@@Z
	??$?0U?$default_delete@V?$basic_node@Uno_node_info@graph@kmint@@@graph@kmint@@@std@@AAPAV?$basic_node@Uno_node_info@graph@kmint@@@graph@kmint@@@?$_Compressed_pair@U?$default_delete@V?$basic_node@Uno_node_info@graph@kmint@@@graph@kmint@@@std@@PAV?$basic_node@Uno_node_info@graph@kmint@@@graph@kmint@@$00@std@@QAE@U_One_then_variadic_args_t@1@$$QAU?$default_delete@V?$basic_node@Uno_node_info@graph@kmint@@@graph@kmint@@@1@AAPAV?$basic_node@Uno_node_info@graph@kmint@@@graph@kmint@@@Z
	??$?0U?$default_delete@V_Facet_base@std@@@std@@$0A@@?$unique_ptr@V_Facet_base@std@@U?$default_delete@V_Facet_base@std@@@2@@std@@QAE@PAV_Facet_base@1@@Z
	??$?0U?$default_delete@Vimpl@app@ui@kmint@@@std@@$0A@@?$unique_ptr@Vimpl@app@ui@kmint@@U?$default_delete@Vimpl@app@ui@kmint@@@std@@@std@@QAE@PAVimpl@app@ui@kmint@@@Z
	??$?0U?$default_delete@Vimpl@app@ui@kmint@@@std@@AAPAVimpl@app@ui@kmint@@@?$_Compressed_pair@U?$default_delete@Vimpl@app@ui@kmint@@@std@@PAVimpl@app@ui@kmint@@$00@std@@QAE@U_One_then_variadic_args_t@1@$$QAU?$default_delete@Vimpl@app@ui@kmint@@@1@AAPAVimpl@app@ui@kmint@@@Z
	??$?0U?$default_delete@Vimpl@window@ui@kmint@@@std@@$0A@@?$unique_ptr@Vimpl@window@ui@kmint@@U?$default_delete@Vimpl@window@ui@kmint@@@std@@@std@@QAE@PAVimpl@window@ui@kmint@@@Z
	??$?0U?$default_delete@Vimpl@window@ui@kmint@@@std@@AAPAVimpl@window@ui@kmint@@@?$_Compressed_pair@U?$default_delete@Vimpl@window@ui@kmint@@@std@@PAVimpl@window@ui@kmint@@$00@std@@QAE@U_One_then_variadic_args_t@1@$$QAU?$default_delete@Vimpl@window@ui@kmint@@@1@AAPAVimpl@window@ui@kmint@@@Z
	??$?0U?$integral_constant@_N$00@std@@@_Unused_parameter@std@@QAE@$$QAU?$integral_constant@_N$00@1@@Z
	??$?0V?$_Tree_iterator@V?$_Tree_val@U?$_Tree_simple_types@U?$pair@$$CBDUtile_info@map@kmint@@@std@@@std@@@std@@@std@@_N$0A@@?$pair@V?$_Tree_iterator@V?$_Tree_val@U?$_Tree_simple_types@U?$pair@$$CBDUtile_info@map@kmint@@@std@@@std@@@std@@@std@@_N@std@@QAE@$$QAV?$_Tree_iterator@V?$_Tree_val@U?$_Tree_simple_types@U?$pair@$$CBDUtile_info@map@kmint@@@std@@@std@@@std@@@1@$$QA_N@Z
	??$?0V?$_Tree_iterator@V?$_Tree_val@U?$_Tree_simple_types@U?$pair@$$CBV?$basic_string@DU?$char_traits@D@std@@V?$allocator@D@2@@std@@Vtexture@sdl@ui@kmint@@@std@@@std@@@std@@@std@@_N$0A@@?$pair@V?$_Tree_iterator@V?$_Tree_val@U?$_Tree_simple_types@U?$pair@$$CBV?$basic_string@DU?$char_traits@D@std@@V?$allocator@D@2@@std@@Vtexture@sdl@ui@kmint@@@std@@@std@@@std@@@std@@_N@std@@QAE@$$QAV?$_Tree_iterator@V?$_Tree_val@U?$_Tree_simple_types@U?$pair@$$CBV?$basic_string@DU?$char_traits@D@std@@V?$allocator@D@2@@std@@Vtexture@sdl@ui@kmint@@@std@@@std@@@std@@@1@$$QA_N@Z
	??$?0V?$allocator@D@std@@$$V@?$_Compressed_pair@V?$allocator@D@std@@V?$_String_val@U?$_Simple_types@D@std@@@2@$00@std@@QAE@U_One_then_variadic_args_t@1@$$QAV?$allocator@D@1@@Z
	??$?0V?$allocator@D@std@@$$V@?$_Compressed_pair@V?$allocator@D@std@@V?$_Vector_val@U?$_Simple_types@D@std@@@2@$00@std@@QAE@U_One_then_variadic_args_t@1@$$QAV?$allocator@D@1@@Z
	??$?0V?$allocator@D@std@@X@?$_String_alloc@U?$_String_base_types@DV?$allocator@D@std@@@std@@@std@@QAE@$$QAV?$allocator@D@1@@Z
	??$?0V?$allocator@D@std@@X@?$_Vector_alloc@U?$_Vec_base_types@DV?$allocator@D@std@@@std@@@std@@QAE@$$QAV?$allocator@D@1@@Z
	??$?0V?$allocator@U?$_Tree_node@U?$pair@$$CBDUtile_info@map@kmint@@@std@@PAX@std@@@std@@$$V@?$_Compressed_pair@V?$allocator@U?$_Tree_node@U?$pair@$$CBDUtile_info@map@kmint@@@std@@PAX@std@@@std@@V?$_Tree_val@U?$_Tree_simple_types@U?$pair@$$CBDUtile_info@map@kmint@@@std@@@std@@@2@$00@std@@QAE@U_One_then_variadic_args_t@1@$$QAV?$allocator@U?$_Tree_node@U?$pair@$$CBDUtile_info@map@kmint@@@std@@PAX@std@@@1@@Z
	??$?0V?$allocator@U?$_Tree_node@U?$pair@$$CBDUtile_info@map@kmint@@@std@@PAX@std@@@std@@@?$_Tree@V?$_Tmap_traits@DUtile_info@map@kmint@@U?$less@D@std@@V?$allocator@U?$pair@$$CBDUtile_info@map@kmint@@@std@@@5@$0A@@std@@@std@@QAE@ABV01@$$QAV?$allocator@U?$_Tree_node@U?$pair@$$CBDUtile_info@map@kmint@@@std@@PAX@std@@@1@@Z
	??$?0V?$allocator@U?$_Tree_node@U?$pair@$$CBDUtile_info@map@kmint@@@std@@PAX@std@@@std@@X@?$_Tree_comp_alloc@V?$_Tmap_traits@DUtile_info@map@kmint@@U?$less@D@std@@V?$allocator@U?$pair@$$CBDUtile_info@map@kmint@@@std@@@5@$0A@@std@@@std@@QAE@ABU?$less@D@1@$$QAV?$allocator@U?$_Tree_node@U?$pair@$$CBDUtile_info@map@kmint@@@std@@PAX@std@@@1@@Z
	??$?0V?$allocator@V?$unique_ptr@V?$basic_node@Umap_node_info@map@kmint@@@graph@kmint@@U?$default_delete@V?$basic_node@Umap_node_info@map@kmint@@@graph@kmint@@@std@@@std@@@std@@$$V@?$_Compressed_pair@V?$allocator@V?$unique_ptr@V?$basic_node@Umap_node_info@map@kmint@@@graph@kmint@@U?$default_delete@V?$basic_node@Umap_node_info@map@kmint@@@graph@kmint@@@std@@@std@@@std@@V?$_Vector_val@U?$_Simple_types@V?$unique_ptr@V?$basic_node@Umap_node_info@map@kmint@@@graph@kmint@@U?$default_delete@V?$basic_node@Umap_node_info@map@kmint@@@graph@kmint@@@std@@@std@@@std@@@2@$00@std@@QAE@U_One_then_variadic_args_t@1@$$QAV?$allocator@V?$unique_ptr@V?$basic_node@Umap_node_info@map@kmint@@@graph@kmint@@U?$default_delete@V?$basic_node@Umap_node_info@map@kmint@@@graph@kmint@@@std@@@std@@@1@@Z
	??$?0V?$allocator@V?$unique_ptr@V?$basic_node@Umap_node_info@map@kmint@@@graph@kmint@@U?$default_delete@V?$basic_node@Umap_node_info@map@kmint@@@graph@kmint@@@std@@@std@@@std@@X@?$_Vector_alloc@U?$_Vec_base_types@V?$unique_ptr@V?$basic_node@Umap_node_info@map@kmint@@@graph@kmint@@U?$default_delete@V?$basic_node@Umap_node_info@map@kmint@@@graph@kmint@@@std@@@std@@V?$allocator@V?$unique_ptr@V?$basic_node@Umap_node_info@map@kmint@@@graph@kmint@@U?$default_delete@V?$basic_node@Umap_node_info@map@kmint@@@graph@kmint@@@std@@@std@@@2@@std@@@std@@QAE@$$QAV?$allocator@V?$unique_ptr@V?$basic_node@Umap_node_info@map@kmint@@@graph@kmint@@U?$default_delete@V?$basic_node@Umap_node_info@map@kmint@@@graph@kmint@@@std@@@std@@@1@@Z
	??$?0V?$allocator@V?$unique_ptr@V?$basic_node@Uno_node_info@graph@kmint@@@graph@kmint@@U?$default_delete@V?$basic_node@Uno_node_info@graph@kmint@@@graph@kmint@@@std@@@std@@@std@@$$V@?$_Compressed_pair@V?$allocator@V?$unique_ptr@V?$basic_node@Uno_node_info@graph@kmint@@@graph@kmint@@U?$default_delete@V?$basic_node@Uno_node_info@graph@kmint@@@graph@kmint@@@std@@@std@@@std@@V?$_Vector_val@U?$_Simple_types@V?$unique_ptr@V?$basic_node@Uno_node_info@graph@kmint@@@graph@kmint@@U?$default_delete@V?$basic_node@Uno_node_info@graph@kmint@@@graph@kmint@@@std@@@std@@@std@@@2@$00@std@@QAE@U_One_then_variadic_args_t@1@$$QAV?$allocator@V?$unique_ptr@V?$basic_node@Uno_node_info@graph@kmint@@@graph@kmint@@U?$default_delete@V?$basic_node@Uno_node_info@graph@kmint@@@graph@kmint@@@std@@@std@@@1@@Z
	??$?0V?$allocator@V?$unique_ptr@V?$basic_node@Uno_node_info@graph@kmint@@@graph@kmint@@U?$default_delete@V?$basic_node@Uno_node_info@graph@kmint@@@graph@kmint@@@std@@@std@@@std@@X@?$_Vector_alloc@U?$_Vec_base_types@V?$unique_ptr@V?$basic_node@Uno_node_info@graph@kmint@@@graph@kmint@@U?$default_delete@V?$basic_node@Uno_node_info@graph@kmint@@@graph@kmint@@@std@@@std@@V?$allocator@V?$unique_ptr@V?$basic_node@Uno_node_info@graph@kmint@@@graph@kmint@@U?$default_delete@V?$basic_node@Uno_node_info@graph@kmint@@@graph@kmint@@@std@@@std@@@2@@std@@@std@@QAE@$$QAV?$allocator@V?$unique_ptr@V?$basic_node@Uno_node_info@graph@kmint@@@graph@kmint@@U?$default_delete@V?$basic_node@Uno_node_info@graph@kmint@@@graph@kmint@@@std@@@std@@@1@@Z
	??$?0V?$basic_string@DU?$char_traits@D@std@@V?$allocator@D@2@@std@@Vtexture@sdl@ui@kmint@@$0A@@?$pair@$$CBV?$basic_string@DU?$char_traits@D@std@@V?$allocator@D@2@@std@@Vtexture@sdl@ui@kmint@@@std@@QAE@$$QAU?$pair@V?$basic_string@DU?$char_traits@D@std@@V?$allocator@D@2@@std@@Vtexture@sdl@ui@kmint@@@1@@Z
	??$?0V?$destroyer@USDL_Renderer@@@sdl@ui@kmint@@$0A@@?$unique_ptr@USDL_Renderer@@V?$destroyer@USDL_Renderer@@@sdl@ui@kmint@@@std@@QAE@PAUSDL_Renderer@@@Z
	??$?0V?$destroyer@USDL_Surface@@@sdl@ui@kmint@@$0A@@?$unique_ptr@USDL_Surface@@V?$destroyer@USDL_Surface@@@sdl@ui@kmint@@@std@@QAE@PAUSDL_Surface@@@Z
	??$?0V?$destroyer@USDL_Texture@@@sdl@ui@kmint@@$0A@@?$unique_ptr@USDL_Texture@@V?$destroyer@USDL_Texture@@@sdl@ui@kmint@@@std@@QAE@PAUSDL_Texture@@@Z
	??$?0V?$destroyer@USDL_Texture@@@sdl@ui@kmint@@AAPAUSDL_Texture@@@?$_Compressed_pair@V?$destroyer@USDL_Texture@@@sdl@ui@kmint@@PAUSDL_Texture@@$00@std@@QAE@U_One_then_variadic_args_t@1@$$QAV?$destroyer@USDL_Texture@@@sdl@ui@kmint@@AAPAUSDL_Texture@@@Z
	??$?0V?$destroyer@USDL_Window@@@sdl@ui@kmint@@$0A@@?$unique_ptr@USDL_Window@@V?$destroyer@USDL_Window@@@sdl@ui@kmint@@@std@@QAE@PAUSDL_Window@@@Z
	??$?0V?$unique_ptr@V?$basic_edge@Umap_node_info@map@kmint@@@graph@kmint@@U?$default_delete@V?$basic_edge@Umap_node_info@map@kmint@@@graph@kmint@@@std@@@std@@@?$allocator@U_Container_proxy@std@@@std@@QAE@ABV?$allocator@V?$unique_ptr@V?$basic_edge@Umap_node_info@map@kmint@@@graph@kmint@@U?$default_delete@V?$basic_edge@Umap_node_info@map@kmint@@@graph@kmint@@@std@@@std@@@1@@Z
	??$?0V?$unique_ptr@V?$basic_edge@Uno_node_info@graph@kmint@@@graph@kmint@@U?$default_delete@V?$basic_edge@Uno_node_info@graph@kmint@@@graph@kmint@@@std@@@std@@@?$allocator@U_Container_proxy@std@@@std@@QAE@ABV?$allocator@V?$unique_ptr@V?$basic_edge@Uno_node_info@graph@kmint@@@graph@kmint@@U?$default_delete@V?$basic_edge@Uno_node_info@graph@kmint@@@graph@kmint@@@std@@@std@@@1@@Z
	??$?0V?$unique_ptr@V?$basic_node@Umap_node_info@map@kmint@@@graph@kmint@@U?$default_delete@V?$basic_node@Umap_node_info@map@kmint@@@graph@kmint@@@std@@@std@@@?$allocator@U_Container_proxy@std@@@std@@QAE@ABV?$allocator@V?$unique_ptr@V?$basic_node@Umap_node_info@map@kmint@@@graph@kmint@@U?$default_delete@V?$basic_node@Umap_node_info@map@kmint@@@graph@kmint@@@std@@@std@@@1@@Z
	??$?0V?$unique_ptr@V?$basic_node@Uno_node_info@graph@kmint@@@graph@kmint@@U?$default_delete@V?$basic_node@Uno_node_info@graph@kmint@@@graph@kmint@@@std@@@std@@@?$allocator@U_Container_proxy@std@@@std@@QAE@ABV?$allocator@V?$unique_ptr@V?$basic_node@Uno_node_info@graph@kmint@@@graph@kmint@@U?$default_delete@V?$basic_node@Uno_node_info@graph@kmint@@@graph@kmint@@@std@@@std@@@1@@Z
	??$?5DU?$char_traits@D@std@@@std@@YAAAV?$basic_istream@DU?$char_traits@D@std@@@0@AAV10@AAD@Z
	??$?5DU?$char_traits@D@std@@V?$allocator@D@1@@std@@YAAAV?$basic_istream@DU?$char_traits@D@std@@@0@$$QAV10@AAV?$basic_string@DU?$char_traits@D@std@@V?$allocator@D@2@@0@@Z
	??$?5DU?$char_traits@D@std@@V?$allocator@D@1@@std@@YAAAV?$basic_istream@DU?$char_traits@D@std@@@0@AAV10@AAV?$basic_string@DU?$char_traits@D@std@@V?$allocator@D@2@@0@@Z
	??$?5H@math@kmint@@YAAAV?$basic_istream@DU?$char_traits@D@std@@@std@@AAV23@AAV?$basic_size@H@01@@Z
	??$?5M@math@kmint@@YAAAV?$basic_istream@DU?$char_traits@D@std@@@std@@AAV23@AAV?$basic_vector2d@M@01@@Z
	??$?8DDU?$char_traits@D@std@@H@std@@YA_NABV?$istream_iterator@DDU?$char_traits@D@std@@H@0@0@Z
	??$?9DD@std@@YA_NABV?$allocator@D@0@0@Z
	??$?9DDU?$char_traits@D@std@@H@std@@YA_NABV?$istream_iterator@DDU?$char_traits@D@std@@H@0@0@Z
	??$?DH@math@kmint@@YA?AV?$basic_size@H@01@V201@H@Z
	??$?GM@math@kmint@@YA?AV?$basic_vector2d@M@01@V201@0@Z
	??$?HDU?$char_traits@D@std@@V?$allocator@D@1@@std@@YA?AV?$basic_string@DU?$char_traits@D@std@@V?$allocator@D@2@@0@$$QAV10@QBD@Z
	??$?HDU?$char_traits@D@std@@V?$allocator@D@1@@std@@YA?AV?$basic_string@DU?$char_traits@D@std@@V?$allocator@D@2@@0@QBDABV10@@Z
	??$?MDU?$char_traits@D@std@@V?$allocator@D@1@@std@@YA_NABV?$basic_string@DU?$char_traits@D@std@@V?$allocator@D@2@@0@0@Z
	??$?RV?$mersenne_twister_engine@I$0CA@$0CHA@$0BIN@$0BP@$0JJAILANP@$0L@$0PPPPPPPP@$06$0JNCMFGIA@$0P@$0OPMGAAAA@$0BC@$0GMAHIJGF@@std@@@?$uniform_int@H@std@@QBEHAAV?$mersenne_twister_engine@I$0CA@$0CHA@$0BIN@$0BP@$0JJAILANP@$0L@$0PPPPPPPP@$06$0JNCMFGIA@$0P@$0OPMGAAAA@$0BC@$0GMAHIJGF@@1@@Z
	??$?RV?$mersenne_twister_engine@I$0CA@$0CHA@$0BIN@$0BP@$0JJAILANP@$0L@$0PPPPPPPP@$06$0JNCMFGIA@$0P@$0OPMGAAAA@$0BC@$0GMAHIJGF@@std@@@?$uniform_real@M@std@@QBEMAAV?$mersenne_twister_engine@I$0CA@$0CHA@$0BIN@$0BP@$0JJAILANP@$0L@$0PPPPPPPP@$06$0JNCMFGIA@$0P@$0OPMGAAAA@$0BC@$0GMAHIJGF@@1@@Z
	??$_Adl_verify_range@PAV?$unique_ptr@Vactor@play@kmint@@U?$default_delete@Vactor@play@kmint@@@std@@@std@@PAV12@@std@@YAXABQAV?$unique_ptr@Vactor@play@kmint@@U?$default_delete@Vactor@play@kmint@@@std@@@0@0@Z
	??$_Adl_verify_range@V?$_Vector_iterator@V?$_Vector_val@U?$_Simple_types@V?$unique_ptr@Vactor@play@kmint@@U?$default_delete@Vactor@play@kmint@@@std@@@std@@@std@@@std@@@std@@V12@@std@@YAXABV?$_Vector_iterator@V?$_Vector_val@U?$_Simple_types@V?$unique_ptr@Vactor@play@kmint@@U?$default_delete@Vactor@play@kmint@@@std@@@std@@@std@@@std@@@0@0@Z
	??$_Adl_verify_range@V?$istream_iterator@DDU?$char_traits@D@std@@H@std@@V12@@std@@YAXABV?$istream_iterator@DDU?$char_traits@D@std@@H@0@0@Z
	??$_Adl_verify_range@V?$wrapped_iterator@Vactor@play@kmint@@V?$_Vector_iterator@V?$_Vector_val@U?$_Simple_types@V?$unique_ptr@Vactor@play@kmint@@U?$default_delete@Vactor@play@kmint@@@std@@@std@@@std@@@std@@@std@@@util@kmint@@V123@@std@@YAXABV?$wrapped_iterator@Vactor@play@kmint@@V?$_Vector_iterator@V?$_Vector_val@U?$_Simple_types@V?$unique_ptr@Vactor@play@kmint@@U?$default_delete@Vactor@play@kmint@@@std@@@std@@@std@@@std@@@std@@@util@kmint@@0@Z
	??$_Allocate@$07U_Default_allocate_traits@std@@$0A@@std@@YAPAXI@Z
	??$_Allocate_manually_vector_aligned@U_Default_allocate_traits@std@@@std@@YAPAXI@Z
	??$_Buy_if_not_node@AAU?$pair@$$CBDUtile_info@map@kmint@@@std@@@?$_Tree@V?$_Tmap_traits@DUtile_info@map@kmint@@U?$less@D@std@@V?$allocator@U?$pair@$$CBDUtile_info@map@kmint@@@std@@@5@$0A@@std@@@std@@IAEPAU?$_Tree_node@U?$pair@$$CBDUtile_info@map@kmint@@@std@@PAX@1@PAU21@AAU?$pair@$$CBDUtile_info@map@kmint@@@1@@Z
	??$_Buy_if_not_node@AAU?$pair@$$CBV?$basic_string@DU?$char_traits@D@std@@V?$allocator@D@2@@std@@Vtexture@sdl@ui@kmint@@@std@@@?$_Tree@V?$_Tmap_traits@V?$basic_string@DU?$char_traits@D@std@@V?$allocator@D@2@@std@@Vtexture@sdl@ui@kmint@@U?$less@V?$basic_string@DU?$char_traits@D@std@@V?$allocator@D@2@@std@@@2@V?$allocator@U?$pair@$$CBV?$basic_string@DU?$char_traits@D@std@@V?$allocator@D@2@@std@@Vtexture@sdl@ui@kmint@@@std@@@2@$0A@@std@@@std@@IAEPAU?$_Tree_node@U?$pair@$$CBV?$basic_string@DU?$char_traits@D@std@@V?$allocator@D@2@@std@@Vtexture@sdl@ui@kmint@@@std@@PAX@1@PAU21@AAU?$pair@$$CBV?$basic_string@DU?$char_traits@D@std@@V?$allocator@D@2@@std@@Vtexture@sdl@ui@kmint@@@1@@Z
	??$_Buynode@AADAAUtile_info@map@kmint@@@?$_Tree_comp_alloc@V?$_Tmap_traits@DUtile_info@map@kmint@@U?$less@D@std@@V?$allocator@U?$pair@$$CBDUtile_info@map@kmint@@@std@@@5@$0A@@std@@@std@@QAEPAU?$_Tree_node@U?$pair@$$CBDUtile_info@map@kmint@@@std@@PAX@1@AADAAUtile_info@map@kmint@@@Z
	??$_Buynode@AAU?$pair@$$CBDUtile_info@map@kmint@@@std@@@?$_Tree_comp_alloc@V?$_Tmap_traits@DUtile_info@map@kmint@@U?$less@D@std@@V?$allocator@U?$pair@$$CBDUtile_info@map@kmint@@@std@@@5@$0A@@std@@@std@@QAEPAU?$_Tree_node@U?$pair@$$CBDUtile_info@map@kmint@@@std@@PAX@1@AAU?$pair@$$CBDUtile_info@map@kmint@@@1@@Z
	??$_Buynode@U?$pair@V?$basic_string@DU?$char_traits@D@std@@V?$allocator@D@2@@std@@Vtexture@sdl@ui@kmint@@@std@@@?$_Tree_comp_alloc@V?$_Tmap_traits@V?$basic_string@DU?$char_traits@D@std@@V?$allocator@D@2@@std@@Vtexture@sdl@ui@kmint@@U?$less@V?$basic_string@DU?$char_traits@D@std@@V?$allocator@D@2@@std@@@2@V?$allocator@U?$pair@$$CBV?$basic_string@DU?$char_traits@D@std@@V?$allocator@D@2@@std@@Vtexture@sdl@ui@kmint@@@std@@@2@$0A@@std@@@std@@QAEPAU?$_Tree_node@U?$pair@$$CBV?$basic_string@DU?$char_traits@D@std@@V?$allocator@D@2@@std@@Vtexture@sdl@ui@kmint@@@std@@PAX@1@$$QAU?$pair@V?$basic_string@DU?$char_traits@D@std@@V?$allocator@D@2@@std@@Vtexture@sdl@ui@kmint@@@1@@Z
	??$_Call@AAP6AAAVactor@play@kmint@@ABV?$unique_ptr@Vactor@play@kmint@@U?$default_delete@Vactor@play@kmint@@@std@@@std@@@ZAAV45@@?$_Invoker_ret@AAVactor@play@kmint@@$0A@@std@@SAAAVactor@play@kmint@@AAP6AAAV234@ABV?$unique_ptr@Vactor@play@kmint@@U?$default_delete@Vactor@play@kmint@@@std@@@1@@ZAAV51@@Z
	??$_Call@AAP6AAAVactor@play@kmint@@ABV?$unique_ptr@Vactor@play@kmint@@U?$default_delete@Vactor@play@kmint@@@std@@@std@@@ZAAV45@@_Invoker_functor@std@@SAAAVactor@play@kmint@@AAP6AAAV234@ABV?$unique_ptr@Vactor@play@kmint@@U?$default_delete@Vactor@play@kmint@@@std@@@1@@ZAAV51@@Z
	??$_Call@AAP6AABVactor@play@kmint@@ABV?$unique_ptr@Vactor@play@kmint@@U?$default_delete@Vactor@play@kmint@@@std@@@std@@@ZABV45@@?$_Invoker_ret@ABVactor@play@kmint@@$0A@@std@@SAABVactor@play@kmint@@AAP6AABV234@ABV?$unique_ptr@Vactor@play@kmint@@U?$default_delete@Vactor@play@kmint@@@std@@@1@@Z0@Z
	??$_Call@AAP6AABVactor@play@kmint@@ABV?$unique_ptr@Vactor@play@kmint@@U?$default_delete@Vactor@play@kmint@@@std@@@std@@@ZABV45@@_Invoker_functor@std@@SAABVactor@play@kmint@@AAP6AABV234@ABV?$unique_ptr@Vactor@play@kmint@@U?$default_delete@Vactor@play@kmint@@@std@@@1@@Z0@Z
	??$_Const_cast@$$CBV?$unique_ptr@Vactor@play@kmint@@U?$default_delete@Vactor@play@kmint@@@std@@@std@@@std@@YAPAV?$unique_ptr@Vactor@play@kmint@@U?$default_delete@Vactor@play@kmint@@@std@@@0@PBV10@@Z
	??$_Convert_size@I@std@@YAII@Z
	??$_Copy@U_Copy_tag@?$_Tree@V?$_Tmap_traits@DUtile_info@map@kmint@@U?$less@D@std@@V?$allocator@U?$pair@$$CBDUtile_info@map@kmint@@@std@@@5@$0A@@std@@@std@@@?$_Tree@V?$_Tmap_traits@DUtile_info@map@kmint@@U?$less@D@std@@V?$allocator@U?$pair@$$CBDUtile_info@map@kmint@@@std@@@5@$0A@@std@@@std@@IAEXABV01@U_Copy_tag@01@@Z
	??$_Copy_memmove@PADPAD@std@@YAPADPAD00@Z
	??$_Copy_memmove@PAPAVactor@play@kmint@@PAPAV123@@std@@YAPAPAVactor@play@kmint@@PAPAV123@00@Z
	??$_Copy_nodes@U_Copy_tag@?$_Tree@V?$_Tmap_traits@DUtile_info@map@kmint@@U?$less@D@std@@V?$allocator@U?$pair@$$CBDUtile_info@map@kmint@@@std@@@5@$0A@@std@@@std@@@?$_Tree@V?$_Tmap_traits@DUtile_info@map@kmint@@U?$less@D@std@@V?$allocator@U?$pair@$$CBDUtile_info@map@kmint@@@std@@@5@$0A@@std@@@std@@IAEPAU?$_Tree_node@U?$pair@$$CBDUtile_info@map@kmint@@@std@@PAX@1@PAU21@0U_Copy_tag@01@@Z
	??$_Copy_or_move@U?$pair@$$CBDUtile_info@map@kmint@@@std@@U?$integral_constant@_N$0A@@2@@?$_Tree@V?$_Tmap_traits@DUtile_info@map@kmint@@U?$less@D@std@@V?$allocator@U?$pair@$$CBDUtile_info@map@kmint@@@std@@@5@$0A@@std@@@std@@IAEPAU?$_Tree_node@U?$pair@$$CBDUtile_info@map@kmint@@@std@@PAX@1@AAU?$pair@$$CBDUtile_info@map@kmint@@@1@U_Copy_tag@01@U?$integral_constant@_N$0A@@1@@Z
	??$_Copy_unchecked1@V?$istream_iterator@DDU?$char_traits@D@std@@H@std@@V?$back_insert_iterator@V?$vector@DV?$allocator@D@std@@@std@@@2@@std@@YA?AV?$back_insert_iterator@V?$vector@DV?$allocator@D@std@@@std@@@0@V?$istream_iterator@DDU?$char_traits@D@std@@H@0@0V10@U_General_ptr_iterator_tag@0@@Z
	??$_Copy_unchecked@V?$istream_iterator@DDU?$char_traits@D@std@@H@std@@V?$back_insert_iterator@V?$vector@DV?$allocator@D@std@@@std@@@2@@std@@YA?AV?$back_insert_iterator@V?$vector@DV?$allocator@D@std@@@std@@@0@V?$istream_iterator@DDU?$char_traits@D@std@@H@0@0V10@@Z
	??$_Deallocate@$03$0A@@std@@YAXPAXI@Z
	??$_Deallocate@$07$0A@@std@@YAXPAXI@Z
	??$_Deallocate_plain@V?$allocator@U_Container_proxy@std@@@std@@$0A@@std@@YAXAAV?$allocator@U_Container_proxy@std@@@0@QAU_Container_proxy@0@@Z
	??$_Debug_lt_pred@AAU?$less@D@std@@ABDABD@std@@YA_NAAU?$less@D@0@ABD1@Z
	??$_Debug_lt_pred@AAU?$less@V?$basic_string@DU?$char_traits@D@std@@V?$allocator@D@2@@std@@@std@@ABV?$basic_string@DU?$char_traits@D@std@@V?$allocator@D@2@@2@ABV32@@std@@YA_NAAU?$less@V?$basic_string@DU?$char_traits@D@std@@V?$allocator@D@2@@std@@@0@ABV?$basic_string@DU?$char_traits@D@std@@V?$allocator@D@2@@0@1@Z
	??$_Debug_lt_pred@ABU?$less@D@std@@ABDABD@std@@YA_NABU?$less@D@0@ABD1@Z
	??$_Debug_lt_pred@ABU?$less@V?$basic_string@DU?$char_traits@D@std@@V?$allocator@D@2@@std@@@std@@ABV?$basic_string@DU?$char_traits@D@std@@V?$allocator@D@2@@2@ABV32@@std@@YA_NABU?$less@V?$basic_string@DU?$char_traits@D@std@@V?$allocator@D@2@@std@@@0@ABV?$basic_string@DU?$char_traits@D@std@@V?$allocator@D@2@@0@1@Z
	??$_Destroy_range1@V?$allocator@D@std@@@std@@YAXPAD0AAV?$allocator@D@0@U?$integral_constant@_N$00@0@@Z
	??$_Destroy_range1@V?$allocator@H@std@@@std@@YAXPAH0AAV?$allocator@H@0@U?$integral_constant@_N$00@0@@Z
	??$_Destroy_range1@V?$allocator@PAVactor@play@kmint@@@std@@@std@@YAXPAPAVactor@play@kmint@@0AAV?$allocator@PAVactor@play@kmint@@@0@U?$integral_constant@_N$00@0@@Z
	??$_Destroy_range1@V?$allocator@V?$unique_ptr@V?$basic_edge@Umap_node_info@map@kmint@@@graph@kmint@@U?$default_delete@V?$basic_edge@Umap_node_info@map@kmint@@@graph@kmint@@@std@@@std@@@std@@@std@@YAXPAV?$unique_ptr@V?$basic_edge@Umap_node_info@map@kmint@@@graph@kmint@@U?$default_delete@V?$basic_edge@Umap_node_info@map@kmint@@@graph@kmint@@@std@@@0@0AAV?$allocator@V?$unique_ptr@V?$basic_edge@Umap_node_info@map@kmint@@@graph@kmint@@U?$default_delete@V?$basic_edge@Umap_node_info@map@kmint@@@graph@kmint@@@std@@@std@@@0@U?$integral_constant@_N$0A@@0@@Z
	??$_Destroy_range1@V?$allocator@V?$unique_ptr@V?$basic_edge@Uno_node_info@graph@kmint@@@graph@kmint@@U?$default_delete@V?$basic_edge@Uno_node_info@graph@kmint@@@graph@kmint@@@std@@@std@@@std@@@std@@YAXPAV?$unique_ptr@V?$basic_edge@Uno_node_info@graph@kmint@@@graph@kmint@@U?$default_delete@V?$basic_edge@Uno_node_info@graph@kmint@@@graph@kmint@@@std@@@0@0AAV?$allocator@V?$unique_ptr@V?$basic_edge@Uno_node_info@graph@kmint@@@graph@kmint@@U?$default_delete@V?$basic_edge@Uno_node_info@graph@kmint@@@graph@kmint@@@std@@@std@@@0@U?$integral_constant@_N$0A@@0@@Z
	??$_Destroy_range1@V?$allocator@V?$unique_ptr@V?$basic_node@Umap_node_info@map@kmint@@@graph@kmint@@U?$default_delete@V?$basic_node@Umap_node_info@map@kmint@@@graph@kmint@@@std@@@std@@@std@@@std@@YAXPAV?$unique_ptr@V?$basic_node@Umap_node_info@map@kmint@@@graph@kmint@@U?$default_delete@V?$basic_node@Umap_node_info@map@kmint@@@graph@kmint@@@std@@@0@0AAV?$allocator@V?$unique_ptr@V?$basic_node@Umap_node_info@map@kmint@@@graph@kmint@@U?$default_delete@V?$basic_node@Umap_node_info@map@kmint@@@graph@kmint@@@std@@@std@@@0@U?$integral_constant@_N$0A@@0@@Z
	??$_Destroy_range1@V?$allocator@V?$unique_ptr@V?$basic_node@Uno_node_info@graph@kmint@@@graph@kmint@@U?$default_delete@V?$basic_node@Uno_node_info@graph@kmint@@@graph@kmint@@@std@@@std@@@std@@@std@@YAXPAV?$unique_ptr@V?$basic_node@Uno_node_info@graph@kmint@@@graph@kmint@@U?$default_delete@V?$basic_node@Uno_node_info@graph@kmint@@@graph@kmint@@@std@@@0@0AAV?$allocator@V?$unique_ptr@V?$basic_node@Uno_node_info@graph@kmint@@@graph@kmint@@U?$default_delete@V?$basic_node@Uno_node_info@graph@kmint@@@graph@kmint@@@std@@@std@@@0@U?$integral_constant@_N$0A@@0@@Z
	??$_Destroy_range1@V?$allocator@V?$unique_ptr@Vactor@play@kmint@@U?$default_delete@Vactor@play@kmint@@@std@@@std@@@std@@@std@@YAXPAV?$unique_ptr@Vactor@play@kmint@@U?$default_delete@Vactor@play@kmint@@@std@@@0@0AAV?$allocator@V?$unique_ptr@Vactor@play@kmint@@U?$default_delete@Vactor@play@kmint@@@std@@@std@@@0@U?$integral_constant@_N$0A@@0@@Z
	??$_Destroy_range@V?$allocator@D@std@@@std@@YAXPAD0AAV?$allocator@D@0@@Z
	??$_Destroy_range@V?$allocator@H@std@@@std@@YAXPAH0AAV?$allocator@H@0@@Z
	??$_Destroy_range@V?$allocator@PAVactor@play@kmint@@@std@@@std@@YAXPAPAVactor@play@kmint@@0AAV?$allocator@PAVactor@play@kmint@@@0@@Z
	??$_Destroy_range@V?$allocator@V?$unique_ptr@V?$basic_edge@Umap_node_info@map@kmint@@@graph@kmint@@U?$default_delete@V?$basic_edge@Umap_node_info@map@kmint@@@graph@kmint@@@std@@@std@@@std@@@std@@YAXPAV?$unique_ptr@V?$basic_edge@Umap_node_info@map@kmint@@@graph@kmint@@U?$default_delete@V?$basic_edge@Umap_node_info@map@kmint@@@graph@kmint@@@std@@@0@0AAV?$allocator@V?$unique_ptr@V?$basic_edge@Umap_node_info@map@kmint@@@graph@kmint@@U?$default_delete@V?$basic_edge@Umap_node_info@map@kmint@@@graph@kmint@@@std@@@std@@@0@@Z
	??$_Destroy_range@V?$allocator@V?$unique_ptr@V?$basic_edge@Uno_node_info@graph@kmint@@@graph@kmint@@U?$default_delete@V?$basic_edge@Uno_node_info@graph@kmint@@@graph@kmint@@@std@@@std@@@std@@@std@@YAXPAV?$unique_ptr@V?$basic_edge@Uno_node_info@graph@kmint@@@graph@kmint@@U?$default_delete@V?$basic_edge@Uno_node_info@graph@kmint@@@graph@kmint@@@std@@@0@0AAV?$allocator@V?$unique_ptr@V?$basic_edge@Uno_node_info@graph@kmint@@@graph@kmint@@U?$default_delete@V?$basic_edge@Uno_node_info@graph@kmint@@@graph@kmint@@@std@@@std@@@0@@Z
	??$_Destroy_range@V?$allocator@V?$unique_ptr@V?$basic_node@Umap_node_info@map@kmint@@@graph@kmint@@U?$default_delete@V?$basic_node@Umap_node_info@map@kmint@@@graph@kmint@@@std@@@std@@@std@@@std@@YAXPAV?$unique_ptr@V?$basic_node@Umap_node_info@map@kmint@@@graph@kmint@@U?$default_delete@V?$basic_node@Umap_node_info@map@kmint@@@graph@kmint@@@std@@@0@0AAV?$allocator@V?$unique_ptr@V?$basic_node@Umap_node_info@map@kmint@@@graph@kmint@@U?$default_delete@V?$basic_node@Umap_node_info@map@kmint@@@graph@kmint@@@std@@@std@@@0@@Z
	??$_Destroy_range@V?$allocator@V?$unique_ptr@V?$basic_node@Uno_node_info@graph@kmint@@@graph@kmint@@U?$default_delete@V?$basic_node@Uno_node_info@graph@kmint@@@graph@kmint@@@std@@@std@@@std@@@std@@YAXPAV?$unique_ptr@V?$basic_node@Uno_node_info@graph@kmint@@@graph@kmint@@U?$default_delete@V?$basic_node@Uno_node_info@graph@kmint@@@graph@kmint@@@std@@@0@0AAV?$allocator@V?$unique_ptr@V?$basic_node@Uno_node_info@graph@kmint@@@graph@kmint@@U?$default_delete@V?$basic_node@Uno_node_info@graph@kmint@@@graph@kmint@@@std@@@std@@@0@@Z
	??$_Destroy_range@V?$allocator@V?$unique_ptr@Vactor@play@kmint@@U?$default_delete@Vactor@play@kmint@@@std@@@std@@@std@@@std@@YAXPAV?$unique_ptr@Vactor@play@kmint@@U?$default_delete@Vactor@play@kmint@@@std@@@0@0AAV?$allocator@V?$unique_ptr@Vactor@play@kmint@@U?$default_delete@Vactor@play@kmint@@@std@@@std@@@0@@Z
	??$_Emplace_back@ABH@?$_Uninitialized_backout_al@PAHV?$allocator@H@std@@@std@@QAEXABH@Z
	??$_Emplace_back@V?$unique_ptr@V?$basic_edge@Umap_node_info@map@kmint@@@graph@kmint@@U?$default_delete@V?$basic_edge@Umap_node_info@map@kmint@@@graph@kmint@@@std@@@std@@@?$_Uninitialized_backout_al@PAV?$unique_ptr@V?$basic_edge@Umap_node_info@map@kmint@@@graph@kmint@@U?$default_delete@V?$basic_edge@Umap_node_info@map@kmint@@@graph@kmint@@@std@@@std@@V?$allocator@V?$unique_ptr@V?$basic_edge@Umap_node_info@map@kmint@@@graph@kmint@@U?$default_delete@V?$basic_edge@Umap_node_info@map@kmint@@@graph@kmint@@@std@@@std@@@2@@std@@QAEX$$QAV?$unique_ptr@V?$basic_edge@Umap_node_info@map@kmint@@@graph@kmint@@U?$default_delete@V?$basic_edge@Umap_node_info@map@kmint@@@graph@kmint@@@std@@@1@@Z
	??$_Emplace_back@V?$unique_ptr@V?$basic_edge@Uno_node_info@graph@kmint@@@graph@kmint@@U?$default_delete@V?$basic_edge@Uno_node_info@graph@kmint@@@graph@kmint@@@std@@@std@@@?$_Uninitialized_backout_al@PAV?$unique_ptr@V?$basic_edge@Uno_node_info@graph@kmint@@@graph@kmint@@U?$default_delete@V?$basic_edge@Uno_node_info@graph@kmint@@@graph@kmint@@@std@@@std@@V?$allocator@V?$unique_ptr@V?$basic_edge@Uno_node_info@graph@kmint@@@graph@kmint@@U?$default_delete@V?$basic_edge@Uno_node_info@graph@kmint@@@graph@kmint@@@std@@@std@@@2@@std@@QAEX$$QAV?$unique_ptr@V?$basic_edge@Uno_node_info@graph@kmint@@@graph@kmint@@U?$default_delete@V?$basic_edge@Uno_node_info@graph@kmint@@@graph@kmint@@@std@@@1@@Z
	??$_Emplace_back@V?$unique_ptr@V?$basic_node@Umap_node_info@map@kmint@@@graph@kmint@@U?$default_delete@V?$basic_node@Umap_node_info@map@kmint@@@graph@kmint@@@std@@@std@@@?$_Uninitialized_backout_al@PAV?$unique_ptr@V?$basic_node@Umap_node_info@map@kmint@@@graph@kmint@@U?$default_delete@V?$basic_node@Umap_node_info@map@kmint@@@graph@kmint@@@std@@@std@@V?$allocator@V?$unique_ptr@V?$basic_node@Umap_node_info@map@kmint@@@graph@kmint@@U?$default_delete@V?$basic_node@Umap_node_info@map@kmint@@@graph@kmint@@@std@@@std@@@2@@std@@QAEX$$QAV?$unique_ptr@V?$basic_node@Umap_node_info@map@kmint@@@graph@kmint@@U?$default_delete@V?$basic_node@Umap_node_info@map@kmint@@@graph@kmint@@@std@@@1@@Z
	??$_Emplace_back@V?$unique_ptr@V?$basic_node@Uno_node_info@graph@kmint@@@graph@kmint@@U?$default_delete@V?$basic_node@Uno_node_info@graph@kmint@@@graph@kmint@@@std@@@std@@@?$_Uninitialized_backout_al@PAV?$unique_ptr@V?$basic_node@Uno_node_info@graph@kmint@@@graph@kmint@@U?$default_delete@V?$basic_node@Uno_node_info@graph@kmint@@@graph@kmint@@@std@@@std@@V?$allocator@V?$unique_ptr@V?$basic_node@Uno_node_info@graph@kmint@@@graph@kmint@@U?$default_delete@V?$basic_node@Uno_node_info@graph@kmint@@@graph@kmint@@@std@@@std@@@2@@std@@QAEX$$QAV?$unique_ptr@V?$basic_node@Uno_node_info@graph@kmint@@@graph@kmint@@U?$default_delete@V?$basic_node@Uno_node_info@graph@kmint@@@graph@kmint@@@std@@@1@@Z
	??$_Emplace_back_with_unused_capacity@ABD@?$vector@DV?$allocator@D@std@@@std@@AAEAADABD@Z
	??$_Emplace_back_with_unused_capacity@PAV?$basic_node@Umap_node_info@map@kmint@@@graph@kmint@@@?$vector@V?$unique_ptr@V?$basic_node@Umap_node_info@map@kmint@@@graph@kmint@@U?$default_delete@V?$basic_node@Umap_node_info@map@kmint@@@graph@kmint@@@std@@@std@@V?$allocator@V?$unique_ptr@V?$basic_node@Umap_node_info@map@kmint@@@graph@kmint@@U?$default_delete@V?$basic_node@Umap_node_info@map@kmint@@@graph@kmint@@@std@@@std@@@2@@std@@AAEAAV?$unique_ptr@V?$basic_node@Umap_node_info@map@kmint@@@graph@kmint@@U?$default_delete@V?$basic_node@Umap_node_info@map@kmint@@@graph@kmint@@@std@@@1@$$QAPAV?$basic_node@Umap_node_info@map@kmint@@@graph@kmint@@@Z
	??$_Emplace_back_with_unused_capacity@PAV?$basic_node@Uno_node_info@graph@kmint@@@graph@kmint@@@?$vector@V?$unique_ptr@V?$basic_node@Uno_node_info@graph@kmint@@@graph@kmint@@U?$default_delete@V?$basic_node@Uno_node_info@graph@kmint@@@graph@kmint@@@std@@@std@@V?$allocator@V?$unique_ptr@V?$basic_node@Uno_node_info@graph@kmint@@@graph@kmint@@U?$default_delete@V?$basic_node@Uno_node_info@graph@kmint@@@graph@kmint@@@std@@@std@@@2@@std@@AAEAAV?$unique_ptr@V?$basic_node@Uno_node_info@graph@kmint@@@graph@kmint@@U?$default_delete@V?$basic_node@Uno_node_info@graph@kmint@@@graph@kmint@@@std@@@1@$$QAPAV?$basic_node@Uno_node_info@graph@kmint@@@graph@kmint@@@Z
	??$_Emplace_back_with_unused_capacity@PAVactor@play@kmint@@@?$vector@PAVactor@play@kmint@@V?$allocator@PAVactor@play@kmint@@@std@@@std@@AAEAAPAVactor@play@kmint@@$$QAPAV234@@Z
	??$_Emplace_back_with_unused_capacity@V?$unique_ptr@V?$basic_edge@Umap_node_info@map@kmint@@@graph@kmint@@U?$default_delete@V?$basic_edge@Umap_node_info@map@kmint@@@graph@kmint@@@std@@@std@@@?$vector@V?$unique_ptr@V?$basic_edge@Umap_node_info@map@kmint@@@graph@kmint@@U?$default_delete@V?$basic_edge@Umap_node_info@map@kmint@@@graph@kmint@@@std@@@std@@V?$allocator@V?$unique_ptr@V?$basic_edge@Umap_node_info@map@kmint@@@graph@kmint@@U?$default_delete@V?$basic_edge@Umap_node_info@map@kmint@@@graph@kmint@@@std@@@std@@@2@@std@@AAEAAV?$unique_ptr@V?$basic_edge@Umap_node_info@map@kmint@@@graph@kmint@@U?$default_delete@V?$basic_edge@Umap_node_info@map@kmint@@@graph@kmint@@@std@@@1@$$QAV21@@Z
	??$_Emplace_back_with_unused_capacity@V?$unique_ptr@V?$basic_edge@Uno_node_info@graph@kmint@@@graph@kmint@@U?$default_delete@V?$basic_edge@Uno_node_info@graph@kmint@@@graph@kmint@@@std@@@std@@@?$vector@V?$unique_ptr@V?$basic_edge@Uno_node_info@graph@kmint@@@graph@kmint@@U?$default_delete@V?$basic_edge@Uno_node_info@graph@kmint@@@graph@kmint@@@std@@@std@@V?$allocator@V?$unique_ptr@V?$basic_edge@Uno_node_info@graph@kmint@@@graph@kmint@@U?$default_delete@V?$basic_edge@Uno_node_info@graph@kmint@@@graph@kmint@@@std@@@std@@@2@@std@@AAEAAV?$unique_ptr@V?$basic_edge@Uno_node_info@graph@kmint@@@graph@kmint@@U?$default_delete@V?$basic_edge@Uno_node_info@graph@kmint@@@graph@kmint@@@std@@@1@$$QAV21@@Z
	??$_Emplace_reallocate@ABD@?$vector@DV?$allocator@D@std@@@std@@QAEPADQADABD@Z
	??$_Emplace_reallocate@PAV?$basic_node@Umap_node_info@map@kmint@@@graph@kmint@@@?$vector@V?$unique_ptr@V?$basic_node@Umap_node_info@map@kmint@@@graph@kmint@@U?$default_delete@V?$basic_node@Umap_node_info@map@kmint@@@graph@kmint@@@std@@@std@@V?$allocator@V?$unique_ptr@V?$basic_node@Umap_node_info@map@kmint@@@graph@kmint@@U?$default_delete@V?$basic_node@Umap_node_info@map@kmint@@@graph@kmint@@@std@@@std@@@2@@std@@QAEPAV?$unique_ptr@V?$basic_node@Umap_node_info@map@kmint@@@graph@kmint@@U?$default_delete@V?$basic_node@Umap_node_info@map@kmint@@@graph@kmint@@@std@@@1@QAV21@$$QAPAV?$basic_node@Umap_node_info@map@kmint@@@graph@kmint@@@Z
	??$_Emplace_reallocate@PAV?$basic_node@Uno_node_info@graph@kmint@@@graph@kmint@@@?$vector@V?$unique_ptr@V?$basic_node@Uno_node_info@graph@kmint@@@graph@kmint@@U?$default_delete@V?$basic_node@Uno_node_info@graph@kmint@@@graph@kmint@@@std@@@std@@V?$allocator@V?$unique_ptr@V?$basic_node@Uno_node_info@graph@kmint@@@graph@kmint@@U?$default_delete@V?$basic_node@Uno_node_info@graph@kmint@@@graph@kmint@@@std@@@std@@@2@@std@@QAEPAV?$unique_ptr@V?$basic_node@Uno_node_info@graph@kmint@@@graph@kmint@@U?$default_delete@V?$basic_node@Uno_node_info@graph@kmint@@@graph@kmint@@@std@@@1@QAV21@$$QAPAV?$basic_node@Uno_node_info@graph@kmint@@@graph@kmint@@@Z
	??$_Emplace_reallocate@PAVactor@play@kmint@@@?$vector@PAVactor@play@kmint@@V?$allocator@PAVactor@play@kmint@@@std@@@std@@QAEPAPAVactor@play@kmint@@QAPAV234@$$QAPAV234@@Z
	??$_Emplace_reallocate@V?$unique_ptr@V?$basic_edge@Umap_node_info@map@kmint@@@graph@kmint@@U?$default_delete@V?$basic_edge@Umap_node_info@map@kmint@@@graph@kmint@@@std@@@std@@@?$vector@V?$unique_ptr@V?$basic_edge@Umap_node_info@map@kmint@@@graph@kmint@@U?$default_delete@V?$basic_edge@Umap_node_info@map@kmint@@@graph@kmint@@@std@@@std@@V?$allocator@V?$unique_ptr@V?$basic_edge@Umap_node_info@map@kmint@@@graph@kmint@@U?$default_delete@V?$basic_edge@Umap_node_info@map@kmint@@@graph@kmint@@@std@@@std@@@2@@std@@QAEPAV?$unique_ptr@V?$basic_edge@Umap_node_info@map@kmint@@@graph@kmint@@U?$default_delete@V?$basic_edge@Umap_node_info@map@kmint@@@graph@kmint@@@std@@@1@QAV21@$$QAV21@@Z
	??$_Emplace_reallocate@V?$unique_ptr@V?$basic_edge@Uno_node_info@graph@kmint@@@graph@kmint@@U?$default_delete@V?$basic_edge@Uno_node_info@graph@kmint@@@graph@kmint@@@std@@@std@@@?$vector@V?$unique_ptr@V?$basic_edge@Uno_node_info@graph@kmint@@@graph@kmint@@U?$default_delete@V?$basic_edge@Uno_node_info@graph@kmint@@@graph@kmint@@@std@@@std@@V?$allocator@V?$unique_ptr@V?$basic_edge@Uno_node_info@graph@kmint@@@graph@kmint@@U?$default_delete@V?$basic_edge@Uno_node_info@graph@kmint@@@graph@kmint@@@std@@@std@@@2@@std@@QAEPAV?$unique_ptr@V?$basic_edge@Uno_node_info@graph@kmint@@@graph@kmint@@U?$default_delete@V?$basic_edge@Uno_node_info@graph@kmint@@@graph@kmint@@@std@@@1@QAV21@$$QAV21@@Z
	??$_Eval@V?$mersenne_twister_engine@I$0CA@$0CHA@$0BIN@$0BP@$0JJAILANP@$0L@$0PPPPPPPP@$06$0JNCMFGIA@$0P@$0OPMGAAAA@$0BC@$0GMAHIJGF@@std@@@?$uniform_int@H@std@@ABEHAAV?$mersenne_twister_engine@I$0CA@$0CHA@$0BIN@$0BP@$0JJAILANP@$0L@$0PPPPPPPP@$06$0JNCMFGIA@$0P@$0OPMGAAAA@$0BC@$0GMAHIJGF@@1@HH@Z
	??$_Eval@V?$mersenne_twister_engine@I$0CA@$0CHA@$0BIN@$0BP@$0JJAILANP@$0L@$0PPPPPPPP@$06$0JNCMFGIA@$0P@$0OPMGAAAA@$0BC@$0GMAHIJGF@@std@@@?$uniform_real@M@std@@ABEMAAV?$mersenne_twister_engine@I$0CA@$0CHA@$0BIN@$0BP@$0JJAILANP@$0L@$0PPPPPPPP@$06$0JNCMFGIA@$0P@$0OPMGAAAA@$0BC@$0GMAHIJGF@@1@ABUparam_type@01@@Z
	??$_Freenode0@V?$allocator@U?$_Tree_node@U?$pair@$$CBDUtile_info@map@kmint@@@std@@PAX@std@@@std@@@?$_Tree_node@U?$pair@$$CBDUtile_info@map@kmint@@@std@@PAX@std@@SAXAAV?$allocator@U?$_Tree_node@U?$pair@$$CBDUtile_info@map@kmint@@@std@@PAX@std@@@1@PAU01@@Z
	??$_Freenode0@V?$allocator@U?$_Tree_node@U?$pair@$$CBV?$basic_string@DU?$char_traits@D@std@@V?$allocator@D@2@@std@@Vtexture@sdl@ui@kmint@@@std@@PAX@std@@@std@@@?$_Tree_node@U?$pair@$$CBV?$basic_string@DU?$char_traits@D@std@@V?$allocator@D@2@@std@@Vtexture@sdl@ui@kmint@@@std@@PAX@std@@SAXAAV?$allocator@U?$_Tree_node@U?$pair@$$CBV?$basic_string@DU?$char_traits@D@std@@V?$allocator@D@2@@std@@Vtexture@sdl@ui@kmint@@@std@@PAX@std@@@1@PAU01@@Z
	??$_Get_size_of_n@$00@std@@YAII@Z
	??$_Get_size_of_n@$03@std@@YAII@Z
	??$_Get_size_of_n@$07@std@@YAII@Z
	??$_Get_size_of_n@$0BM@@std@@YAII@Z
	??$_Get_size_of_n@$0DI@@std@@YAII@Z
	??$_Get_unwrapped@D@std@@YAPADQAD@Z
	??$_Get_unwrapped@PAVactor@play@kmint@@@std@@YAPAPAVactor@play@kmint@@QAPAV123@@Z
	??$_Get_unwrapped@V?$_Vector_iterator@V?$_Vector_val@U?$_Simple_types@V?$unique_ptr@Vactor@play@kmint@@U?$default_delete@Vactor@play@kmint@@@std@@@std@@@std@@@std@@@std@@$0A@@std@@YAPAV?$unique_ptr@Vactor@play@kmint@@U?$default_delete@Vactor@play@kmint@@@std@@@0@ABV?$_Vector_iterator@V?$_Vector_val@U?$_Simple_types@V?$unique_ptr@Vactor@play@kmint@@U?$default_delete@Vactor@play@kmint@@@std@@@std@@@std@@@std@@@0@@Z
	??$_Get_unwrapped@V?$istream_iterator@DDU?$char_traits@D@std@@H@std@@$0A@@std@@YAABV?$istream_iterator@DDU?$char_traits@D@std@@H@0@ABV10@@Z
	??$_Get_unwrapped@V?$unique_ptr@V?$basic_edge@Umap_node_info@map@kmint@@@graph@kmint@@U?$default_delete@V?$basic_edge@Umap_node_info@map@kmint@@@graph@kmint@@@std@@@std@@@std@@YAPAV?$unique_ptr@V?$basic_edge@Umap_node_info@map@kmint@@@graph@kmint@@U?$default_delete@V?$basic_edge@Umap_node_info@map@kmint@@@graph@kmint@@@std@@@0@QAV10@@Z
	??$_Get_unwrapped@V?$unique_ptr@V?$basic_edge@Uno_node_info@graph@kmint@@@graph@kmint@@U?$default_delete@V?$basic_edge@Uno_node_info@graph@kmint@@@graph@kmint@@@std@@@std@@@std@@YAPAV?$unique_ptr@V?$basic_edge@Uno_node_info@graph@kmint@@@graph@kmint@@U?$default_delete@V?$basic_edge@Uno_node_info@graph@kmint@@@graph@kmint@@@std@@@0@QAV10@@Z
	??$_Get_unwrapped@V?$unique_ptr@V?$basic_node@Umap_node_info@map@kmint@@@graph@kmint@@U?$default_delete@V?$basic_node@Umap_node_info@map@kmint@@@graph@kmint@@@std@@@std@@@std@@YAPAV?$unique_ptr@V?$basic_node@Umap_node_info@map@kmint@@@graph@kmint@@U?$default_delete@V?$basic_node@Umap_node_info@map@kmint@@@graph@kmint@@@std@@@0@QAV10@@Z
	??$_Get_unwrapped@V?$unique_ptr@V?$basic_node@Uno_node_info@graph@kmint@@@graph@kmint@@U?$default_delete@V?$basic_node@Uno_node_info@graph@kmint@@@graph@kmint@@@std@@@std@@@std@@YAPAV?$unique_ptr@V?$basic_node@Uno_node_info@graph@kmint@@@graph@kmint@@U?$default_delete@V?$basic_node@Uno_node_info@graph@kmint@@@graph@kmint@@@std@@@0@QAV10@@Z
	??$_Get_unwrapped@V?$unique_ptr@Vactor@play@kmint@@U?$default_delete@Vactor@play@kmint@@@std@@@std@@@std@@YAPAV?$unique_ptr@Vactor@play@kmint@@U?$default_delete@Vactor@play@kmint@@@std@@@0@QAV10@@Z
	??$_Get_unwrapped@V?$wrapped_iterator@Vactor@play@kmint@@V?$_Vector_iterator@V?$_Vector_val@U?$_Simple_types@V?$unique_ptr@Vactor@play@kmint@@U?$default_delete@Vactor@play@kmint@@@std@@@std@@@std@@@std@@@std@@@util@kmint@@$0A@@std@@YAABV?$wrapped_iterator@Vactor@play@kmint@@V?$_Vector_iterator@V?$_Vector_val@U?$_Simple_types@V?$unique_ptr@Vactor@play@kmint@@U?$default_delete@Vactor@play@kmint@@@std@@@std@@@std@@@std@@@std@@@util@kmint@@ABV123@@Z
	??$_Get_unwrapped_n@DH$0A@@std@@YAPADQADH@Z
	??$_Get_unwrapped_n@PAVactor@play@kmint@@H$0A@@std@@YAPAPAVactor@play@kmint@@QAPAV123@H@Z
	??$_Get_unwrapped_n@V?$back_insert_iterator@V?$vector@DV?$allocator@D@std@@@std@@@std@@U_Distance_unknown@2@$0A@@std@@YAABV?$back_insert_iterator@V?$vector@DV?$allocator@D@std@@@std@@@0@ABV10@U_Distance_unknown@0@@Z
	??$_Get_unwrapped_n@V?$unique_ptr@V?$basic_edge@Umap_node_info@map@kmint@@@graph@kmint@@U?$default_delete@V?$basic_edge@Umap_node_info@map@kmint@@@graph@kmint@@@std@@@std@@H$0A@@std@@YAPAV?$unique_ptr@V?$basic_edge@Umap_node_info@map@kmint@@@graph@kmint@@U?$default_delete@V?$basic_edge@Umap_node_info@map@kmint@@@graph@kmint@@@std@@@0@QAV10@H@Z
	??$_Get_unwrapped_n@V?$unique_ptr@V?$basic_edge@Uno_node_info@graph@kmint@@@graph@kmint@@U?$default_delete@V?$basic_edge@Uno_node_info@graph@kmint@@@graph@kmint@@@std@@@std@@H$0A@@std@@YAPAV?$unique_ptr@V?$basic_edge@Uno_node_info@graph@kmint@@@graph@kmint@@U?$default_delete@V?$basic_edge@Uno_node_info@graph@kmint@@@graph@kmint@@@std@@@0@QAV10@H@Z
	??$_Get_unwrapped_n@V?$unique_ptr@V?$basic_node@Umap_node_info@map@kmint@@@graph@kmint@@U?$default_delete@V?$basic_node@Umap_node_info@map@kmint@@@graph@kmint@@@std@@@std@@H$0A@@std@@YAPAV?$unique_ptr@V?$basic_node@Umap_node_info@map@kmint@@@graph@kmint@@U?$default_delete@V?$basic_node@Umap_node_info@map@kmint@@@graph@kmint@@@std@@@0@QAV10@H@Z
	??$_Get_unwrapped_n@V?$unique_ptr@V?$basic_node@Uno_node_info@graph@kmint@@@graph@kmint@@U?$default_delete@V?$basic_node@Uno_node_info@graph@kmint@@@graph@kmint@@@std@@@std@@H$0A@@std@@YAPAV?$unique_ptr@V?$basic_node@Uno_node_info@graph@kmint@@@graph@kmint@@U?$default_delete@V?$basic_node@Uno_node_info@graph@kmint@@@graph@kmint@@@std@@@0@QAV10@H@Z
	??$_Idl_distance@PADPAD@std@@YAHABQAD0@Z
	??$_Idl_distance@PAPAVactor@play@kmint@@PAPAV123@@std@@YAHABQAPAVactor@play@kmint@@0@Z
	??$_Idl_distance@PAV?$unique_ptr@V?$basic_edge@Umap_node_info@map@kmint@@@graph@kmint@@U?$default_delete@V?$basic_edge@Umap_node_info@map@kmint@@@graph@kmint@@@std@@@std@@PAV12@@std@@YAHABQAV?$unique_ptr@V?$basic_edge@Umap_node_info@map@kmint@@@graph@kmint@@U?$default_delete@V?$basic_edge@Umap_node_info@map@kmint@@@graph@kmint@@@std@@@0@0@Z
	??$_Idl_distance@PAV?$unique_ptr@V?$basic_edge@Uno_node_info@graph@kmint@@@graph@kmint@@U?$default_delete@V?$basic_edge@Uno_node_info@graph@kmint@@@graph@kmint@@@std@@@std@@PAV12@@std@@YAHABQAV?$unique_ptr@V?$basic_edge@Uno_node_info@graph@kmint@@@graph@kmint@@U?$default_delete@V?$basic_edge@Uno_node_info@graph@kmint@@@graph@kmint@@@std@@@0@0@Z
	??$_Idl_distance@PAV?$unique_ptr@V?$basic_node@Umap_node_info@map@kmint@@@graph@kmint@@U?$default_delete@V?$basic_node@Umap_node_info@map@kmint@@@graph@kmint@@@std@@@std@@PAV12@@std@@YAHABQAV?$unique_ptr@V?$basic_node@Umap_node_info@map@kmint@@@graph@kmint@@U?$default_delete@V?$basic_node@Umap_node_info@map@kmint@@@graph@kmint@@@std@@@0@0@Z
	??$_Idl_distance@PAV?$unique_ptr@V?$basic_node@Uno_node_info@graph@kmint@@@graph@kmint@@U?$default_delete@V?$basic_node@Uno_node_info@graph@kmint@@@graph@kmint@@@std@@@std@@PAV12@@std@@YAHABQAV?$unique_ptr@V?$basic_node@Uno_node_info@graph@kmint@@@graph@kmint@@U?$default_delete@V?$basic_node@Uno_node_info@graph@kmint@@@graph@kmint@@@std@@@0@0@Z
	??$_Idl_distance@V?$istream_iterator@DDU?$char_traits@D@std@@H@std@@V12@@std@@YA?AU_Distance_unknown@0@ABV?$istream_iterator@DDU?$char_traits@D@std@@H@0@0@Z
	??$_Insert_at@AAU?$pair@$$CBDUtile_info@map@kmint@@@std@@PAU?$_Tree_node@U?$pair@$$CBDUtile_info@map@kmint@@@std@@PAX@2@@?$_Tree@V?$_Tmap_traits@DUtile_info@map@kmint@@U?$less@D@std@@V?$allocator@U?$pair@$$CBDUtile_info@map@kmint@@@std@@@5@$0A@@std@@@std@@IAE?AV?$_Tree_iterator@V?$_Tree_val@U?$_Tree_simple_types@U?$pair@$$CBDUtile_info@map@kmint@@@std@@@std@@@std@@@1@_NPAU?$_Tree_node@U?$pair@$$CBDUtile_info@map@kmint@@@std@@PAX@1@AAU?$pair@$$CBDUtile_info@map@kmint@@@1@1@Z
	??$_Insert_at@AAU?$pair@$$CBV?$basic_string@DU?$char_traits@D@std@@V?$allocator@D@2@@std@@Vtexture@sdl@ui@kmint@@@std@@PAU?$_Tree_node@U?$pair@$$CBV?$basic_string@DU?$char_traits@D@std@@V?$allocator@D@2@@std@@Vtexture@sdl@ui@kmint@@@std@@PAX@2@@?$_Tree@V?$_Tmap_traits@V?$basic_string@DU?$char_traits@D@std@@V?$allocator@D@2@@std@@Vtexture@sdl@ui@kmint@@U?$less@V?$basic_string@DU?$char_traits@D@std@@V?$allocator@D@2@@std@@@2@V?$allocator@U?$pair@$$CBV?$basic_string@DU?$char_traits@D@std@@V?$allocator@D@2@@std@@Vtexture@sdl@ui@kmint@@@std@@@2@$0A@@std@@@std@@IAE?AV?$_Tree_iterator@V?$_Tree_val@U?$_Tree_simple_types@U?$pair@$$CBV?$basic_string@DU?$char_traits@D@std@@V?$allocator@D@2@@std@@Vtexture@sdl@ui@kmint@@@std@@@std@@@std@@@1@_NPAU?$_Tree_node@U?$pair@$$CBV?$basic_string@DU?$char_traits@D@std@@V?$allocator@D@2@@std@@Vtexture@sdl@ui@kmint@@@std@@PAX@1@AAU?$pair@$$CBV?$basic_string@DU?$char_traits@D@std@@V?$allocator@D@2@@std@@Vtexture@sdl@ui@kmint@@@1@1@Z
	??$_Insert_nohint@AAU?$pair@$$CBDUtile_info@map@kmint@@@std@@PAU?$_Tree_node@U?$pair@$$CBDUtile_info@map@kmint@@@std@@PAX@2@@?$_Tree@V?$_Tmap_traits@DUtile_info@map@kmint@@U?$less@D@std@@V?$allocator@U?$pair@$$CBDUtile_info@map@kmint@@@std@@@5@$0A@@std@@@std@@IAE?AU?$pair@V?$_Tree_iterator@V?$_Tree_val@U?$_Tree_simple_types@U?$pair@$$CBDUtile_info@map@kmint@@@std@@@std@@@std@@@std@@_N@1@_NAAU?$pair@$$CBDUtile_info@map@kmint@@@1@PAU?$_Tree_node@U?$pair@$$CBDUtile_info@map@kmint@@@std@@PAX@1@@Z
	??$_Insert_nohint@AAU?$pair@$$CBV?$basic_string@DU?$char_traits@D@std@@V?$allocator@D@2@@std@@Vtexture@sdl@ui@kmint@@@std@@PAU?$_Tree_node@U?$pair@$$CBV?$basic_string@DU?$char_traits@D@std@@V?$allocator@D@2@@std@@Vtexture@sdl@ui@kmint@@@std@@PAX@2@@?$_Tree@V?$_Tmap_traits@V?$basic_string@DU?$char_traits@D@std@@V?$allocator@D@2@@std@@Vtexture@sdl@ui@kmint@@U?$less@V?$basic_string@DU?$char_traits@D@std@@V?$allocator@D@2@@std@@@2@V?$allocator@U?$pair@$$CBV?$basic_string@DU?$char_traits@D@std@@V?$allocator@D@2@@std@@Vtexture@sdl@ui@kmint@@@std@@@2@$0A@@std@@@std@@IAE?AU?$pair@V?$_Tree_iterator@V?$_Tree_val@U?$_Tree_simple_types@U?$pair@$$CBV?$basic_string@DU?$char_traits@D@std@@V?$allocator@D@2@@std@@Vtexture@sdl@ui@kmint@@@std@@@std@@@std@@@std@@_N@1@_NAAU?$pair@$$CBV?$basic_string@DU?$char_traits@D@std@@V?$allocator@D@2@@std@@Vtexture@sdl@ui@kmint@@@1@PAU?$_Tree_node@U?$pair@$$CBV?$basic_string@DU?$char_traits@D@std@@V?$allocator@D@2@@std@@Vtexture@sdl@ui@kmint@@@std@@PAX@1@@Z
	??$_Kfn@$$CBDUtile_info@map@kmint@@@?$_Tmap_traits@DUtile_info@map@kmint@@U?$less@D@std@@V?$allocator@U?$pair@$$CBDUtile_info@map@kmint@@@std@@@5@$0A@@std@@SAABDABU?$pair@$$CBDUtile_info@map@kmint@@@1@@Z
	??$_Kfn@$$CBV?$basic_string@DU?$char_traits@D@std@@V?$allocator@D@2@@std@@Vtexture@sdl@ui@kmint@@@?$_Tmap_traits@V?$basic_string@DU?$char_traits@D@std@@V?$allocator@D@2@@std@@Vtexture@sdl@ui@kmint@@U?$less@V?$basic_string@DU?$char_traits@D@std@@V?$allocator@D@2@@std@@@2@V?$allocator@U?$pair@$$CBV?$basic_string@DU?$char_traits@D@std@@V?$allocator@D@2@@std@@Vtexture@sdl@ui@kmint@@@std@@@2@$0A@@std@@SAABV?$basic_string@DU?$char_traits@D@std@@V?$allocator@D@2@@1@ABU?$pair@$$CBV?$basic_string@DU?$char_traits@D@std@@V?$allocator@D@2@@std@@Vtexture@sdl@ui@kmint@@@1@@Z
	??$_Lbound@D@?$_Tree@V?$_Tmap_traits@DUtile_info@map@kmint@@U?$less@D@std@@V?$allocator@U?$pair@$$CBDUtile_info@map@kmint@@@std@@@5@$0A@@std@@@std@@IBEPAU?$_Tree_node@U?$pair@$$CBDUtile_info@map@kmint@@@std@@PAX@1@ABD@Z
	??$_Lbound@V?$basic_string@DU?$char_traits@D@std@@V?$allocator@D@2@@std@@@?$_Tree@V?$_Tmap_traits@V?$basic_string@DU?$char_traits@D@std@@V?$allocator@D@2@@std@@Vtexture@sdl@ui@kmint@@U?$less@V?$basic_string@DU?$char_traits@D@std@@V?$allocator@D@2@@std@@@2@V?$allocator@U?$pair@$$CBV?$basic_string@DU?$char_traits@D@std@@V?$allocator@D@2@@std@@Vtexture@sdl@ui@kmint@@@std@@@2@$0A@@std@@@std@@IBEPAU?$_Tree_node@U?$pair@$$CBV?$basic_string@DU?$char_traits@D@std@@V?$allocator@D@2@@std@@Vtexture@sdl@ui@kmint@@@std@@PAX@1@ABV?$basic_string@DU?$char_traits@D@std@@V?$allocator@D@2@@1@@Z
	??$_Max_value@I@std@@YAABIABI0@Z
	??$_Max_value@PAD@std@@YAABQADABQAD0@Z
	??$_Min_value@I@std@@YAABIABI0@Z
	??$_Move_unchecked1@PAV?$unique_ptr@Vactor@play@kmint@@U?$default_delete@Vactor@play@kmint@@@std@@@std@@PAV12@@std@@YAPAV?$unique_ptr@Vactor@play@kmint@@U?$default_delete@Vactor@play@kmint@@@std@@@0@PAV10@00U_General_ptr_iterator_tag@0@@Z
	??$_Move_unchecked@PAV?$unique_ptr@Vactor@play@kmint@@U?$default_delete@Vactor@play@kmint@@@std@@@std@@PAV12@@std@@YAPAV?$unique_ptr@Vactor@play@kmint@@U?$default_delete@Vactor@play@kmint@@@std@@@0@PAV10@00@Z
	??$_Pocma@V?$allocator@D@std@@@std@@YAXAAV?$allocator@D@0@0@Z
	??$_Pocma@V?$allocator@D@std@@@std@@YAXAAV?$allocator@D@0@0U?$integral_constant@_N$00@0@@Z
	??$_Ptr_copy_cat@DD@std@@YA?AU_Really_trivial_ptr_iterator_tag@0@ABQAD0@Z
	??$_Ptr_copy_cat@V?$istream_iterator@DDU?$char_traits@D@std@@H@std@@V?$back_insert_iterator@V?$vector@DV?$allocator@D@std@@@std@@@2@@std@@YA?AU_General_ptr_iterator_tag@0@ABV?$istream_iterator@DDU?$char_traits@D@std@@H@0@ABV?$back_insert_iterator@V?$vector@DV?$allocator@D@std@@@std@@@0@@Z
	??$_Ptr_move_cat@DD@std@@YA?AU_Really_trivial_ptr_iterator_tag@0@ABQAD0@Z
	??$_Ptr_move_cat@PAVactor@play@kmint@@PAV123@@std@@YA?AU_Really_trivial_ptr_iterator_tag@0@ABQAPAVactor@play@kmint@@0@Z
	??$_Ptr_move_cat@V?$unique_ptr@V?$basic_edge@Umap_node_info@map@kmint@@@graph@kmint@@U?$default_delete@V?$basic_edge@Umap_node_info@map@kmint@@@graph@kmint@@@std@@@std@@V12@@std@@YA?AU_General_ptr_iterator_tag@0@ABQAV?$unique_ptr@V?$basic_edge@Umap_node_info@map@kmint@@@graph@kmint@@U?$default_delete@V?$basic_edge@Umap_node_info@map@kmint@@@graph@kmint@@@std@@@0@0@Z
	??$_Ptr_move_cat@V?$unique_ptr@V?$basic_edge@Uno_node_info@graph@kmint@@@graph@kmint@@U?$default_delete@V?$basic_edge@Uno_node_info@graph@kmint@@@graph@kmint@@@std@@@std@@V12@@std@@YA?AU_General_ptr_iterator_tag@0@ABQAV?$unique_ptr@V?$basic_edge@Uno_node_info@graph@kmint@@@graph@kmint@@U?$default_delete@V?$basic_edge@Uno_node_info@graph@kmint@@@graph@kmint@@@std@@@0@0@Z
	??$_Ptr_move_cat@V?$unique_ptr@V?$basic_node@Umap_node_info@map@kmint@@@graph@kmint@@U?$default_delete@V?$basic_node@Umap_node_info@map@kmint@@@graph@kmint@@@std@@@std@@V12@@std@@YA?AU_General_ptr_iterator_tag@0@ABQAV?$unique_ptr@V?$basic_node@Umap_node_info@map@kmint@@@graph@kmint@@U?$default_delete@V?$basic_node@Umap_node_info@map@kmint@@@graph@kmint@@@std@@@0@0@Z
	??$_Ptr_move_cat@V?$unique_ptr@V?$basic_node@Uno_node_info@graph@kmint@@@graph@kmint@@U?$default_delete@V?$basic_node@Uno_node_info@graph@kmint@@@graph@kmint@@@std@@@std@@V12@@std@@YA?AU_General_ptr_iterator_tag@0@ABQAV?$unique_ptr@V?$basic_node@Uno_node_info@graph@kmint@@@graph@kmint@@U?$default_delete@V?$basic_node@Uno_node_info@graph@kmint@@@graph@kmint@@@std@@@0@0@Z
	??$_Ptr_move_cat@V?$unique_ptr@Vactor@play@kmint@@U?$default_delete@Vactor@play@kmint@@@std@@@std@@V12@@std@@YA?AU_General_ptr_iterator_tag@0@ABQAV?$unique_ptr@Vactor@play@kmint@@U?$default_delete@Vactor@play@kmint@@@std@@@0@0@Z
	??$_Reset@P6AAAVactor@play@kmint@@ABV?$unique_ptr@Vactor@play@kmint@@U?$default_delete@Vactor@play@kmint@@@std@@@std@@@Z@?$_Func_class@AAVactor@play@kmint@@AAV?$unique_ptr@Vactor@play@kmint@@U?$default_delete@Vactor@play@kmint@@@std@@@std@@@std@@IAEX$$QAP6AAAVactor@play@kmint@@ABV?$unique_ptr@Vactor@play@kmint@@U?$default_delete@Vactor@play@kmint@@@std@@@1@@Z@Z
	??$_Reset@P6AABVactor@play@kmint@@ABV?$unique_ptr@Vactor@play@kmint@@U?$default_delete@Vactor@play@kmint@@@std@@@std@@@Z@?$_Func_class@ABVactor@play@kmint@@ABV?$unique_ptr@Vactor@play@kmint@@U?$default_delete@Vactor@play@kmint@@@std@@@std@@@std@@IAEX$$QAP6AABVactor@play@kmint@@ABV?$unique_ptr@Vactor@play@kmint@@U?$default_delete@Vactor@play@kmint@@@std@@@1@@Z@Z
	??$_Reset_impl@V?$_Func_impl_no_alloc@P6AAAVactor@play@kmint@@ABV?$unique_ptr@Vactor@play@kmint@@U?$default_delete@Vactor@play@kmint@@@std@@@std@@@ZAAV123@AAV45@@std@@P6AAAVactor@play@kmint@@ABV?$unique_ptr@Vactor@play@kmint@@U?$default_delete@Vactor@play@kmint@@@std@@@2@@Z@?$_Func_class@AAVactor@play@kmint@@AAV?$unique_ptr@Vactor@play@kmint@@U?$default_delete@Vactor@play@kmint@@@std@@@std@@@std@@IAEX$$QAP6AAAVactor@play@kmint@@ABV?$unique_ptr@Vactor@play@kmint@@U?$default_delete@Vactor@play@kmint@@@std@@@1@@ZU?$integral_constant@_N$0A@@1@@Z
	??$_Reset_impl@V?$_Func_impl_no_alloc@P6AABVactor@play@kmint@@ABV?$unique_ptr@Vactor@play@kmint@@U?$default_delete@Vactor@play@kmint@@@std@@@std@@@ZABV123@ABV45@@std@@P6AABVactor@play@kmint@@ABV?$unique_ptr@Vactor@play@kmint@@U?$default_delete@Vactor@play@kmint@@@std@@@2@@Z@?$_Func_class@ABVactor@play@kmint@@ABV?$unique_ptr@Vactor@play@kmint@@U?$default_delete@Vactor@play@kmint@@@std@@@std@@@std@@IAEX$$QAP6AABVactor@play@kmint@@ABV?$unique_ptr@Vactor@play@kmint@@U?$default_delete@Vactor@play@kmint@@@std@@@1@@ZU?$integral_constant@_N$0A@@1@@Z
	??$_Seek_wrapped@D@std@@YAXAAPADQAD@Z
	??$_Seek_wrapped@PAVactor@play@kmint@@@std@@YAXAAPAPAVactor@play@kmint@@QAPAV123@@Z
	??$_Seek_wrapped@V?$_Vector_iterator@V?$_Vector_val@U?$_Simple_types@V?$unique_ptr@Vactor@play@kmint@@U?$default_delete@Vactor@play@kmint@@@std@@@std@@@std@@@std@@@std@@PAV?$unique_ptr@Vactor@play@kmint@@U?$default_delete@Vactor@play@kmint@@@std@@@2@@std@@YAXAAV?$_Vector_iterator@V?$_Vector_val@U?$_Simple_types@V?$unique_ptr@Vactor@play@kmint@@U?$default_delete@Vactor@play@kmint@@@std@@@std@@@std@@@std@@@0@ABQAV?$unique_ptr@Vactor@play@kmint@@U?$default_delete@Vactor@play@kmint@@@std@@@0@@Z
	??$_Seek_wrapped@V?$back_insert_iterator@V?$vector@DV?$allocator@D@std@@@std@@@std@@V12@@std@@YAXAAV?$back_insert_iterator@V?$vector@DV?$allocator@D@std@@@std@@@0@ABV10@@Z
	??$_Seek_wrapped@V?$unique_ptr@V?$basic_edge@Umap_node_info@map@kmint@@@graph@kmint@@U?$default_delete@V?$basic_edge@Umap_node_info@map@kmint@@@graph@kmint@@@std@@@std@@@std@@YAXAAPAV?$unique_ptr@V?$basic_edge@Umap_node_info@map@kmint@@@graph@kmint@@U?$default_delete@V?$basic_edge@Umap_node_info@map@kmint@@@graph@kmint@@@std@@@0@QAV10@@Z
	??$_Seek_wrapped@V?$unique_ptr@V?$basic_edge@Uno_node_info@graph@kmint@@@graph@kmint@@U?$default_delete@V?$basic_edge@Uno_node_info@graph@kmint@@@graph@kmint@@@std@@@std@@@std@@YAXAAPAV?$unique_ptr@V?$basic_edge@Uno_node_info@graph@kmint@@@graph@kmint@@U?$default_delete@V?$basic_edge@Uno_node_info@graph@kmint@@@graph@kmint@@@std@@@0@QAV10@@Z
	??$_Seek_wrapped@V?$unique_ptr@V?$basic_node@Umap_node_info@map@kmint@@@graph@kmint@@U?$default_delete@V?$basic_node@Umap_node_info@map@kmint@@@graph@kmint@@@std@@@std@@@std@@YAXAAPAV?$unique_ptr@V?$basic_node@Umap_node_info@map@kmint@@@graph@kmint@@U?$default_delete@V?$basic_node@Umap_node_info@map@kmint@@@graph@kmint@@@std@@@0@QAV10@@Z
	??$_Seek_wrapped@V?$unique_ptr@V?$basic_node@Uno_node_info@graph@kmint@@@graph@kmint@@U?$default_delete@V?$basic_node@Uno_node_info@graph@kmint@@@graph@kmint@@@std@@@std@@@std@@YAXAAPAV?$unique_ptr@V?$basic_node@Uno_node_info@graph@kmint@@@graph@kmint@@U?$default_delete@V?$basic_node@Uno_node_info@graph@kmint@@@graph@kmint@@@std@@@0@QAV10@@Z
	??$_Seek_wrapped@V?$unique_ptr@Vactor@play@kmint@@U?$default_delete@Vactor@play@kmint@@@std@@@std@@@std@@YAXAAPAV?$unique_ptr@Vactor@play@kmint@@U?$default_delete@Vactor@play@kmint@@@std@@@0@QAV10@@Z
	??$_Test_callable@P6AAAVactor@play@kmint@@ABV?$unique_ptr@Vactor@play@kmint@@U?$default_delete@Vactor@play@kmint@@@std@@@std@@@Z@std@@YA_NABQ6AAAVactor@play@kmint@@ABV?$unique_ptr@Vactor@play@kmint@@U?$default_delete@Vactor@play@kmint@@@std@@@0@@Z@Z
	??$_Test_callable@P6AAAVactor@play@kmint@@ABV?$unique_ptr@Vactor@play@kmint@@U?$default_delete@Vactor@play@kmint@@@std@@@std@@@Z@std@@YA_NABQ6AAAVactor@play@kmint@@ABV?$unique_ptr@Vactor@play@kmint@@U?$default_delete@Vactor@play@kmint@@@std@@@0@@ZU?$integral_constant@_N$00@0@@Z
	??$_Test_callable@P6AABVactor@play@kmint@@ABV?$unique_ptr@Vactor@play@kmint@@U?$default_delete@Vactor@play@kmint@@@std@@@std@@@Z@std@@YA_NABQ6AABVactor@play@kmint@@ABV?$unique_ptr@Vactor@play@kmint@@U?$default_delete@Vactor@play@kmint@@@std@@@0@@Z@Z
	??$_Test_callable@P6AABVactor@play@kmint@@ABV?$unique_ptr@Vactor@play@kmint@@U?$default_delete@Vactor@play@kmint@@@std@@@std@@@Z@std@@YA_NABQ6AABVactor@play@kmint@@ABV?$unique_ptr@Vactor@play@kmint@@U?$default_delete@Vactor@play@kmint@@@std@@@0@@ZU?$integral_constant@_N$00@0@@Z
	??$_Traits_compare@U?$char_traits@D@std@@@std@@YAHQBDI0I@Z
	??$_Ucopy@PAD@?$vector@DV?$allocator@D@std@@@std@@AAEPADPAD00@Z
	??$_Unfancy@D@std@@YAPADPAD@Z
	??$_Unfancy@H@std@@YAPAHPAH@Z
	??$_Unfancy@PAVactor@play@kmint@@@std@@YAPAPAVactor@play@kmint@@PAPAV123@@Z
	??$_Unfancy@U_Container_proxy@std@@@std@@YAPAU_Container_proxy@0@PAU10@@Z
	??$_Unfancy@V?$unique_ptr@V?$basic_edge@Umap_node_info@map@kmint@@@graph@kmint@@U?$default_delete@V?$basic_edge@Umap_node_info@map@kmint@@@graph@kmint@@@std@@@std@@@std@@YAPAV?$unique_ptr@V?$basic_edge@Umap_node_info@map@kmint@@@graph@kmint@@U?$default_delete@V?$basic_edge@Umap_node_info@map@kmint@@@graph@kmint@@@std@@@0@PAV10@@Z
	??$_Unfancy@V?$unique_ptr@V?$basic_edge@Uno_node_info@graph@kmint@@@graph@kmint@@U?$default_delete@V?$basic_edge@Uno_node_info@graph@kmint@@@graph@kmint@@@std@@@std@@@std@@YAPAV?$unique_ptr@V?$basic_edge@Uno_node_info@graph@kmint@@@graph@kmint@@U?$default_delete@V?$basic_edge@Uno_node_info@graph@kmint@@@graph@kmint@@@std@@@0@PAV10@@Z
	??$_Unfancy@V?$unique_ptr@V?$basic_node@Umap_node_info@map@kmint@@@graph@kmint@@U?$default_delete@V?$basic_node@Umap_node_info@map@kmint@@@graph@kmint@@@std@@@std@@@std@@YAPAV?$unique_ptr@V?$basic_node@Umap_node_info@map@kmint@@@graph@kmint@@U?$default_delete@V?$basic_node@Umap_node_info@map@kmint@@@graph@kmint@@@std@@@0@PAV10@@Z
	??$_Unfancy@V?$unique_ptr@V?$basic_node@Uno_node_info@graph@kmint@@@graph@kmint@@U?$default_delete@V?$basic_node@Uno_node_info@graph@kmint@@@graph@kmint@@@std@@@std@@@std@@YAPAV?$unique_ptr@V?$basic_node@Uno_node_info@graph@kmint@@@graph@kmint@@U?$default_delete@V?$basic_node@Uno_node_info@graph@kmint@@@graph@kmint@@@std@@@0@PAV10@@Z
	??$_Unfancy@V?$unique_ptr@Vactor@play@kmint@@U?$default_delete@Vactor@play@kmint@@@std@@@std@@@std@@YAPAV?$unique_ptr@Vactor@play@kmint@@U?$default_delete@Vactor@play@kmint@@@std@@@0@PAV10@@Z
	??$_Uninit_alloc_fill_n1@PAHIV?$allocator@H@std@@@std@@YAPAHQAHIABHAAV?$allocator@H@0@U?$integral_constant@_N$0A@@0@@Z
	??$_Uninitialized_copy@PADPADV?$allocator@D@std@@@std@@YAPADQAD0PADAAV?$allocator@D@0@@Z
	??$_Uninitialized_copy_al_unchecked@DDV?$allocator@D@std@@@std@@YAPADQAD00AAV?$allocator@D@0@U_Really_trivial_ptr_iterator_tag@0@U?$integral_constant@_N$00@0@@Z
	??$_Uninitialized_fill_n@PAHIV?$allocator@H@std@@@std@@YAPAHQAHIABHAAV?$allocator@H@0@@Z
	??$_Uninitialized_move@PADPADV?$allocator@D@std@@@std@@YAPADQAD0PADAAV?$allocator@D@0@@Z
	??$_Uninitialized_move@PAPAVactor@play@kmint@@PAPAV123@V?$allocator@PAVactor@play@kmint@@@std@@@std@@YAPAPAVactor@play@kmint@@QAPAV123@0PAPAV123@AAV?$allocator@PAVactor@play@kmint@@@0@@Z
	??$_Uninitialized_move@PAV?$unique_ptr@V?$basic_edge@Umap_node_info@map@kmint@@@graph@kmint@@U?$default_delete@V?$basic_edge@Umap_node_info@map@kmint@@@graph@kmint@@@std@@@std@@PAV12@V?$allocator@V?$unique_ptr@V?$basic_edge@Umap_node_info@map@kmint@@@graph@kmint@@U?$default_delete@V?$basic_edge@Umap_node_info@map@kmint@@@graph@kmint@@@std@@@std@@@2@@std@@YAPAV?$unique_ptr@V?$basic_edge@Umap_node_info@map@kmint@@@graph@kmint@@U?$default_delete@V?$basic_edge@Umap_node_info@map@kmint@@@graph@kmint@@@std@@@0@QAV10@0PAV10@AAV?$allocator@V?$unique_ptr@V?$basic_edge@Umap_node_info@map@kmint@@@graph@kmint@@U?$default_delete@V?$basic_edge@Umap_node_info@map@kmint@@@graph@kmint@@@std@@@std@@@0@@Z
	??$_Uninitialized_move@PAV?$unique_ptr@V?$basic_edge@Uno_node_info@graph@kmint@@@graph@kmint@@U?$default_delete@V?$basic_edge@Uno_node_info@graph@kmint@@@graph@kmint@@@std@@@std@@PAV12@V?$allocator@V?$unique_ptr@V?$basic_edge@Uno_node_info@graph@kmint@@@graph@kmint@@U?$default_delete@V?$basic_edge@Uno_node_info@graph@kmint@@@graph@kmint@@@std@@@std@@@2@@std@@YAPAV?$unique_ptr@V?$basic_edge@Uno_node_info@graph@kmint@@@graph@kmint@@U?$default_delete@V?$basic_edge@Uno_node_info@graph@kmint@@@graph@kmint@@@std@@@0@QAV10@0PAV10@AAV?$allocator@V?$unique_ptr@V?$basic_edge@Uno_node_info@graph@kmint@@@graph@kmint@@U?$default_delete@V?$basic_edge@Uno_node_info@graph@kmint@@@graph@kmint@@@std@@@std@@@0@@Z
	??$_Uninitialized_move@PAV?$unique_ptr@V?$basic_node@Umap_node_info@map@kmint@@@graph@kmint@@U?$default_delete@V?$basic_node@Umap_node_info@map@kmint@@@graph@kmint@@@std@@@std@@PAV12@V?$allocator@V?$unique_ptr@V?$basic_node@Umap_node_info@map@kmint@@@graph@kmint@@U?$default_delete@V?$basic_node@Umap_node_info@map@kmint@@@graph@kmint@@@std@@@std@@@2@@std@@YAPAV?$unique_ptr@V?$basic_node@Umap_node_info@map@kmint@@@graph@kmint@@U?$default_delete@V?$basic_node@Umap_node_info@map@kmint@@@graph@kmint@@@std@@@0@QAV10@0PAV10@AAV?$allocator@V?$unique_ptr@V?$basic_node@Umap_node_info@map@kmint@@@graph@kmint@@U?$default_delete@V?$basic_node@Umap_node_info@map@kmint@@@graph@kmint@@@std@@@std@@@0@@Z
	??$_Uninitialized_move@PAV?$unique_ptr@V?$basic_node@Uno_node_info@graph@kmint@@@graph@kmint@@U?$default_delete@V?$basic_node@Uno_node_info@graph@kmint@@@graph@kmint@@@std@@@std@@PAV12@V?$allocator@V?$unique_ptr@V?$basic_node@Uno_node_info@graph@kmint@@@graph@kmint@@U?$default_delete@V?$basic_node@Uno_node_info@graph@kmint@@@graph@kmint@@@std@@@std@@@2@@std@@YAPAV?$unique_ptr@V?$basic_node@Uno_node_info@graph@kmint@@@graph@kmint@@U?$default_delete@V?$basic_node@Uno_node_info@graph@kmint@@@graph@kmint@@@std@@@0@QAV10@0PAV10@AAV?$allocator@V?$unique_ptr@V?$basic_node@Uno_node_info@graph@kmint@@@graph@kmint@@U?$default_delete@V?$basic_node@Uno_node_info@graph@kmint@@@graph@kmint@@@std@@@std@@@0@@Z
	??$_Uninitialized_move_al_unchecked@DDV?$allocator@D@std@@@std@@YAPADQAD00AAV?$allocator@D@0@U_Really_trivial_ptr_iterator_tag@0@U?$integral_constant@_N$00@0@@Z
	??$_Uninitialized_move_al_unchecked@PAV?$unique_ptr@V?$basic_edge@Umap_node_info@map@kmint@@@graph@kmint@@U?$default_delete@V?$basic_edge@Umap_node_info@map@kmint@@@graph@kmint@@@std@@@std@@PAV12@V?$allocator@V?$unique_ptr@V?$basic_edge@Umap_node_info@map@kmint@@@graph@kmint@@U?$default_delete@V?$basic_edge@Umap_node_info@map@kmint@@@graph@kmint@@@std@@@std@@@2@@std@@YAPAV?$unique_ptr@V?$basic_edge@Umap_node_info@map@kmint@@@graph@kmint@@U?$default_delete@V?$basic_edge@Umap_node_info@map@kmint@@@graph@kmint@@@std@@@0@PAV10@QAV10@1AAV?$allocator@V?$unique_ptr@V?$basic_edge@Umap_node_info@map@kmint@@@graph@kmint@@U?$default_delete@V?$basic_edge@Umap_node_info@map@kmint@@@graph@kmint@@@std@@@std@@@0@U_General_ptr_iterator_tag@0@U_Unused_parameter@0@@Z
	??$_Uninitialized_move_al_unchecked@PAV?$unique_ptr@V?$basic_edge@Uno_node_info@graph@kmint@@@graph@kmint@@U?$default_delete@V?$basic_edge@Uno_node_info@graph@kmint@@@graph@kmint@@@std@@@std@@PAV12@V?$allocator@V?$unique_ptr@V?$basic_edge@Uno_node_info@graph@kmint@@@graph@kmint@@U?$default_delete@V?$basic_edge@Uno_node_info@graph@kmint@@@graph@kmint@@@std@@@std@@@2@@std@@YAPAV?$unique_ptr@V?$basic_edge@Uno_node_info@graph@kmint@@@graph@kmint@@U?$default_delete@V?$basic_edge@Uno_node_info@graph@kmint@@@graph@kmint@@@std@@@0@PAV10@QAV10@1AAV?$allocator@V?$unique_ptr@V?$basic_edge@Uno_node_info@graph@kmint@@@graph@kmint@@U?$default_delete@V?$basic_edge@Uno_node_info@graph@kmint@@@graph@kmint@@@std@@@std@@@0@U_General_ptr_iterator_tag@0@U_Unused_parameter@0@@Z
	??$_Uninitialized_move_al_unchecked@PAV?$unique_ptr@V?$basic_node@Umap_node_info@map@kmint@@@graph@kmint@@U?$default_delete@V?$basic_node@Umap_node_info@map@kmint@@@graph@kmint@@@std@@@std@@PAV12@V?$allocator@V?$unique_ptr@V?$basic_node@Umap_node_info@map@kmint@@@graph@kmint@@U?$default_delete@V?$basic_node@Umap_node_info@map@kmint@@@graph@kmint@@@std@@@std@@@2@@std@@YAPAV?$unique_ptr@V?$basic_node@Umap_node_info@map@kmint@@@graph@kmint@@U?$default_delete@V?$basic_node@Umap_node_info@map@kmint@@@graph@kmint@@@std@@@0@PAV10@QAV10@1AAV?$allocator@V?$unique_ptr@V?$basic_node@Umap_node_info@map@kmint@@@graph@kmint@@U?$default_delete@V?$basic_node@Umap_node_info@map@kmint@@@graph@kmint@@@std@@@std@@@0@U_General_ptr_iterator_tag@0@U_Unused_parameter@0@@Z
	??$_Uninitialized_move_al_unchecked@PAV?$unique_ptr@V?$basic_node@Uno_node_info@graph@kmint@@@graph@kmint@@U?$default_delete@V?$basic_node@Uno_node_info@graph@kmint@@@graph@kmint@@@std@@@std@@PAV12@V?$allocator@V?$unique_ptr@V?$basic_node@Uno_node_info@graph@kmint@@@graph@kmint@@U?$default_delete@V?$basic_node@Uno_node_info@graph@kmint@@@graph@kmint@@@std@@@std@@@2@@std@@YAPAV?$unique_ptr@V?$basic_node@Uno_node_info@graph@kmint@@@graph@kmint@@U?$default_delete@V?$basic_node@Uno_node_info@graph@kmint@@@graph@kmint@@@std@@@0@PAV10@QAV10@1AAV?$allocator@V?$unique_ptr@V?$basic_node@Uno_node_info@graph@kmint@@@graph@kmint@@U?$default_delete@V?$basic_node@Uno_node_info@graph@kmint@@@graph@kmint@@@std@@@std@@@0@U_General_ptr_iterator_tag@0@U_Unused_parameter@0@@Z
	??$_Uninitialized_move_al_unchecked@PAVactor@play@kmint@@PAV123@V?$allocator@PAVactor@play@kmint@@@std@@@std@@YAPAPAVactor@play@kmint@@QAPAV123@00AAV?$allocator@PAVactor@play@kmint@@@0@U_Really_trivial_ptr_iterator_tag@0@U?$integral_constant@_N$00@0@@Z
	??$_Verify_range@V?$unique_ptr@Vactor@play@kmint@@U?$default_delete@Vactor@play@kmint@@@std@@@std@@@std@@YAXQBV?$unique_ptr@Vactor@play@kmint@@U?$default_delete@Vactor@play@kmint@@@std@@@0@0@Z
	??$addressof@$$CBV?$_Vector_val@U?$_Simple_types@V?$unique_ptr@Vactor@play@kmint@@U?$default_delete@Vactor@play@kmint@@@std@@@std@@@std@@@std@@@std@@YAPBV?$_Vector_val@U?$_Simple_types@V?$unique_ptr@Vactor@play@kmint@@U?$default_delete@Vactor@play@kmint@@@std@@@std@@@std@@@0@ABV10@@Z
	??$addressof@D@std@@YAPADAAD@Z
	??$addressof@PAD@std@@YAPAPADAAPAD@Z
	??$addressof@PAU?$_Tree_node@U?$pair@$$CBDUtile_info@map@kmint@@@std@@PAX@std@@@std@@YAPAPAU?$_Tree_node@U?$pair@$$CBDUtile_info@map@kmint@@@std@@PAX@0@AAPAU10@@Z
	??$addressof@PAU?$_Tree_node@U?$pair@$$CBV?$basic_string@DU?$char_traits@D@std@@V?$allocator@D@2@@std@@Vtexture@sdl@ui@kmint@@@std@@PAX@std@@@std@@YAPAPAU?$_Tree_node@U?$pair@$$CBV?$basic_string@DU?$char_traits@D@std@@V?$allocator@D@2@@std@@Vtexture@sdl@ui@kmint@@@std@@PAX@0@AAPAU10@@Z
	??$addressof@Q6AAAVactor@play@kmint@@ABV?$unique_ptr@Vactor@play@kmint@@U?$default_delete@Vactor@play@kmint@@@std@@@std@@@Z@std@@YAPBQ6AAAVactor@play@kmint@@ABV?$unique_ptr@Vactor@play@kmint@@U?$default_delete@Vactor@play@kmint@@@std@@@0@@ZABQ6AAAV123@0@Z@Z
	??$addressof@Q6AABVactor@play@kmint@@ABV?$unique_ptr@Vactor@play@kmint@@U?$default_delete@Vactor@play@kmint@@@std@@@std@@@Z@std@@YAPBQ6AABVactor@play@kmint@@ABV?$unique_ptr@Vactor@play@kmint@@U?$default_delete@Vactor@play@kmint@@@std@@@0@@ZABQ6AABV123@0@Z@Z
	??$addressof@U?$pair@$$CBDUtile_info@map@kmint@@@std@@@std@@YAPAU?$pair@$$CBDUtile_info@map@kmint@@@0@AAU10@@Z
	??$addressof@U?$pair@$$CBV?$basic_string@DU?$char_traits@D@std@@V?$allocator@D@2@@std@@Vtexture@sdl@ui@kmint@@@std@@@std@@YAPAU?$pair@$$CBV?$basic_string@DU?$char_traits@D@std@@V?$allocator@D@2@@std@@Vtexture@sdl@ui@kmint@@@0@AAU10@@Z
	??$addressof@V?$_String_val@U?$_Simple_types@D@std@@@std@@@std@@YAPAV?$_String_val@U?$_Simple_types@D@std@@@0@AAV10@@Z
	??$addressof@V?$_Tree_val@U?$_Tree_simple_types@U?$pair@$$CBDUtile_info@map@kmint@@@std@@@std@@@std@@@std@@YAPAV?$_Tree_val@U?$_Tree_simple_types@U?$pair@$$CBDUtile_info@map@kmint@@@std@@@std@@@0@AAV10@@Z
	??$addressof@V?$_Tree_val@U?$_Tree_simple_types@U?$pair@$$CBV?$basic_string@DU?$char_traits@D@std@@V?$allocator@D@2@@std@@Vtexture@sdl@ui@kmint@@@std@@@std@@@std@@@std@@YAPAV?$_Tree_val@U?$_Tree_simple_types@U?$pair@$$CBV?$basic_string@DU?$char_traits@D@std@@V?$allocator@D@2@@std@@Vtexture@sdl@ui@kmint@@@std@@@std@@@0@AAV10@@Z
	??$addressof@V?$_Vector_val@U?$_Simple_types@D@std@@@std@@@std@@YAPAV?$_Vector_val@U?$_Simple_types@D@std@@@0@AAV10@@Z
	??$addressof@V?$_Vector_val@U?$_Simple_types@H@std@@@std@@@std@@YAPAV?$_Vector_val@U?$_Simple_types@H@std@@@0@AAV10@@Z
	??$addressof@V?$_Vector_val@U?$_Simple_types@V?$unique_ptr@V?$basic_edge@Umap_node_info@map@kmint@@@graph@kmint@@U?$default_delete@V?$basic_edge@Umap_node_info@map@kmint@@@graph@kmint@@@std@@@std@@@std@@@std@@@std@@YAPAV?$_Vector_val@U?$_Simple_types@V?$unique_ptr@V?$basic_edge@Umap_node_info@map@kmint@@@graph@kmint@@U?$default_delete@V?$basic_edge@Umap_node_info@map@kmint@@@graph@kmint@@@std@@@std@@@std@@@0@AAV10@@Z
	??$addressof@V?$_Vector_val@U?$_Simple_types@V?$unique_ptr@V?$basic_edge@Uno_node_info@graph@kmint@@@graph@kmint@@U?$default_delete@V?$basic_edge@Uno_node_info@graph@kmint@@@graph@kmint@@@std@@@std@@@std@@@std@@@std@@YAPAV?$_Vector_val@U?$_Simple_types@V?$unique_ptr@V?$basic_edge@Uno_node_info@graph@kmint@@@graph@kmint@@U?$default_delete@V?$basic_edge@Uno_node_info@graph@kmint@@@graph@kmint@@@std@@@std@@@std@@@0@AAV10@@Z
	??$addressof@V?$_Vector_val@U?$_Simple_types@V?$unique_ptr@V?$basic_node@Umap_node_info@map@kmint@@@graph@kmint@@U?$default_delete@V?$basic_node@Umap_node_info@map@kmint@@@graph@kmint@@@std@@@std@@@std@@@std@@@std@@YAPAV?$_Vector_val@U?$_Simple_types@V?$unique_ptr@V?$basic_node@Umap_node_info@map@kmint@@@graph@kmint@@U?$default_delete@V?$basic_node@Umap_node_info@map@kmint@@@graph@kmint@@@std@@@std@@@std@@@0@AAV10@@Z
	??$addressof@V?$_Vector_val@U?$_Simple_types@V?$unique_ptr@V?$basic_node@Uno_node_info@graph@kmint@@@graph@kmint@@U?$default_delete@V?$basic_node@Uno_node_info@graph@kmint@@@graph@kmint@@@std@@@std@@@std@@@std@@@std@@YAPAV?$_Vector_val@U?$_Simple_types@V?$unique_ptr@V?$basic_node@Uno_node_info@graph@kmint@@@graph@kmint@@U?$default_delete@V?$basic_node@Uno_node_info@graph@kmint@@@graph@kmint@@@std@@@std@@@std@@@0@AAV10@@Z
	??$addressof@V?$_Vector_val@U?$_Simple_types@V?$unique_ptr@Vactor@play@kmint@@U?$default_delete@Vactor@play@kmint@@@std@@@std@@@std@@@std@@@std@@YAPAV?$_Vector_val@U?$_Simple_types@V?$unique_ptr@Vactor@play@kmint@@U?$default_delete@Vactor@play@kmint@@@std@@@std@@@std@@@0@AAV10@@Z
	??$addressof@V?$basic_istream@DU?$char_traits@D@std@@@std@@@std@@YAPAV?$basic_istream@DU?$char_traits@D@std@@@0@AAV10@@Z
	??$addressof@V?$basic_string@DU?$char_traits@D@std@@V?$allocator@D@2@@std@@@std@@YAPAV?$basic_string@DU?$char_traits@D@std@@V?$allocator@D@2@@0@AAV10@@Z
	??$addressof@V?$unique_ptr@Uimpl@frame@ui@kmint@@U?$default_delete@Uimpl@frame@ui@kmint@@@std@@@std@@@std@@YAPAV?$unique_ptr@Uimpl@frame@ui@kmint@@U?$default_delete@Uimpl@frame@ui@kmint@@@std@@@0@AAV10@@Z
	??$addressof@V?$unique_ptr@Vactor@play@kmint@@U?$default_delete@Vactor@play@kmint@@@std@@@std@@@std@@YAPAV?$unique_ptr@Vactor@play@kmint@@U?$default_delete@Vactor@play@kmint@@@std@@@0@AAV10@@Z
	??$addressof@V?$unique_ptr@Vimpl@app@ui@kmint@@U?$default_delete@Vimpl@app@ui@kmint@@@std@@@std@@@std@@YAPAV?$unique_ptr@Vimpl@app@ui@kmint@@U?$default_delete@Vimpl@app@ui@kmint@@@std@@@0@AAV10@@Z
	??$addressof@V?$unique_ptr@Vimpl@window@ui@kmint@@U?$default_delete@Vimpl@window@ui@kmint@@@std@@@std@@@std@@YAPAV?$unique_ptr@Vimpl@window@ui@kmint@@U?$default_delete@Vimpl@window@ui@kmint@@@std@@@0@AAV10@@Z
	??$addressof@V?$vector@DV?$allocator@D@std@@@std@@@std@@YAPAV?$vector@DV?$allocator@D@std@@@0@AAV10@@Z
	??$apply_rgb@A6AHPAUSDL_Texture@@EEE@ZPAU1@@sdl@ui@kmint@@YAHA6AHPAUSDL_Texture@@EEE@ZVcolor@graphics@2@$$QAPAU3@@Z
	??$apply_rgba@A6AHPAUSDL_Renderer@@EEEE@ZPAU1@@sdl@ui@kmint@@YAHA6AHPAUSDL_Renderer@@EEEE@ZVcolor@graphics@2@$$QAPAU3@@Z
	??$back_inserter@V?$vector@DV?$allocator@D@std@@@std@@@std@@YA?AV?$back_insert_iterator@V?$vector@DV?$allocator@D@std@@@std@@@0@AAV?$vector@DV?$allocator@D@std@@@0@@Z
	??$construct@DABD@?$_Default_allocator_traits@V?$allocator@D@std@@@std@@SAXAAV?$allocator@D@1@QADABD@Z
	??$construct@HABH@?$_Default_allocator_traits@V?$allocator@H@std@@@std@@SAXAAV?$allocator@H@1@QAHABH@Z
	??$construct@PADABQAD@?$_Default_allocator_traits@V?$allocator@D@std@@@std@@SAXAAV?$allocator@D@1@QAPADABQAD@Z
	??$construct@PAU?$_Tree_node@U?$pair@$$CBDUtile_info@map@kmint@@@std@@PAX@std@@AAPAU12@@?$_Default_allocator_traits@V?$allocator@U?$_Tree_node@U?$pair@$$CBDUtile_info@map@kmint@@@std@@PAX@std@@@std@@@std@@SAXAAV?$allocator@U?$_Tree_node@U?$pair@$$CBDUtile_info@map@kmint@@@std@@PAX@std@@@1@QAPAU?$_Tree_node@U?$pair@$$CBDUtile_info@map@kmint@@@std@@PAX@1@AAPAU31@@Z
	??$construct@PAU?$_Tree_node@U?$pair@$$CBV?$basic_string@DU?$char_traits@D@std@@V?$allocator@D@2@@std@@Vtexture@sdl@ui@kmint@@@std@@PAX@std@@AAPAU12@@?$_Default_allocator_traits@V?$allocator@U?$_Tree_node@U?$pair@$$CBV?$basic_string@DU?$char_traits@D@std@@V?$allocator@D@2@@std@@Vtexture@sdl@ui@kmint@@@std@@PAX@std@@@std@@@std@@SAXAAV?$allocator@U?$_Tree_node@U?$pair@$$CBV?$basic_string@DU?$char_traits@D@std@@V?$allocator@D@2@@std@@Vtexture@sdl@ui@kmint@@@std@@PAX@std@@@1@QAPAU?$_Tree_node@U?$pair@$$CBV?$basic_string@DU?$char_traits@D@std@@V?$allocator@D@2@@std@@Vtexture@sdl@ui@kmint@@@std@@PAX@1@AAPAU31@@Z
	??$construct@PAVactor@play@kmint@@PAV123@@?$_Default_allocator_traits@V?$allocator@PAVactor@play@kmint@@@std@@@std@@SAXAAV?$allocator@PAVactor@play@kmint@@@1@QAPAVactor@play@kmint@@$$QAPAV345@@Z
	??$construct@U?$pair@$$CBDUtile_info@map@kmint@@@std@@AADAAUtile_info@map@kmint@@@?$_Default_allocator_traits@V?$allocator@U?$_Tree_node@U?$pair@$$CBDUtile_info@map@kmint@@@std@@PAX@std@@@std@@@std@@SAXAAV?$allocator@U?$_Tree_node@U?$pair@$$CBDUtile_info@map@kmint@@@std@@PAX@std@@@1@QAU?$pair@$$CBDUtile_info@map@kmint@@@1@AADAAUtile_info@map@kmint@@@Z
	??$construct@U?$pair@$$CBDUtile_info@map@kmint@@@std@@AAU12@@?$_Default_allocator_traits@V?$allocator@U?$_Tree_node@U?$pair@$$CBDUtile_info@map@kmint@@@std@@PAX@std@@@std@@@std@@SAXAAV?$allocator@U?$_Tree_node@U?$pair@$$CBDUtile_info@map@kmint@@@std@@PAX@std@@@1@QAU?$pair@$$CBDUtile_info@map@kmint@@@1@AAU31@@Z
	??$construct@U?$pair@$$CBV?$basic_string@DU?$char_traits@D@std@@V?$allocator@D@2@@std@@Vtexture@sdl@ui@kmint@@@std@@U?$pair@V?$basic_string@DU?$char_traits@D@std@@V?$allocator@D@2@@std@@Vtexture@sdl@ui@kmint@@@2@@?$_Default_allocator_traits@V?$allocator@U?$_Tree_node@U?$pair@$$CBV?$basic_string@DU?$char_traits@D@std@@V?$allocator@D@2@@std@@Vtexture@sdl@ui@kmint@@@std@@PAX@std@@@std@@@std@@SAXAAV?$allocator@U?$_Tree_node@U?$pair@$$CBV?$basic_string@DU?$char_traits@D@std@@V?$allocator@D@2@@std@@Vtexture@sdl@ui@kmint@@@std@@PAX@std@@@1@QAU?$pair@$$CBV?$basic_string@DU?$char_traits@D@std@@V?$allocator@D@2@@std@@Vtexture@sdl@ui@kmint@@@1@$$QAU?$pair@V?$basic_string@DU?$char_traits@D@std@@V?$allocator@D@2@@std@@Vtexture@sdl@ui@kmint@@@1@@Z
	??$construct@U_Container_proxy@std@@U12@@?$_Default_allocator_traits@V?$allocator@U_Container_proxy@std@@@std@@@std@@SAXAAV?$allocator@U_Container_proxy@std@@@1@QAU_Container_proxy@1@$$QAU31@@Z
	??$construct@V?$unique_ptr@V?$basic_edge@Umap_node_info@map@kmint@@@graph@kmint@@U?$default_delete@V?$basic_edge@Umap_node_info@map@kmint@@@graph@kmint@@@std@@@std@@V12@@?$_Default_allocator_traits@V?$allocator@V?$unique_ptr@V?$basic_edge@Umap_node_info@map@kmint@@@graph@kmint@@U?$default_delete@V?$basic_edge@Umap_node_info@map@kmint@@@graph@kmint@@@std@@@std@@@std@@@std@@SAXAAV?$allocator@V?$unique_ptr@V?$basic_edge@Umap_node_info@map@kmint@@@graph@kmint@@U?$default_delete@V?$basic_edge@Umap_node_info@map@kmint@@@graph@kmint@@@std@@@std@@@1@QAV?$unique_ptr@V?$basic_edge@Umap_node_info@map@kmint@@@graph@kmint@@U?$default_delete@V?$basic_edge@Umap_node_info@map@kmint@@@graph@kmint@@@std@@@1@$$QAV31@@Z
	??$construct@V?$unique_ptr@V?$basic_edge@Uno_node_info@graph@kmint@@@graph@kmint@@U?$default_delete@V?$basic_edge@Uno_node_info@graph@kmint@@@graph@kmint@@@std@@@std@@V12@@?$_Default_allocator_traits@V?$allocator@V?$unique_ptr@V?$basic_edge@Uno_node_info@graph@kmint@@@graph@kmint@@U?$default_delete@V?$basic_edge@Uno_node_info@graph@kmint@@@graph@kmint@@@std@@@std@@@std@@@std@@SAXAAV?$allocator@V?$unique_ptr@V?$basic_edge@Uno_node_info@graph@kmint@@@graph@kmint@@U?$default_delete@V?$basic_edge@Uno_node_info@graph@kmint@@@graph@kmint@@@std@@@std@@@1@QAV?$unique_ptr@V?$basic_edge@Uno_node_info@graph@kmint@@@graph@kmint@@U?$default_delete@V?$basic_edge@Uno_node_info@graph@kmint@@@graph@kmint@@@std@@@1@$$QAV31@@Z
	??$construct@V?$unique_ptr@V?$basic_node@Umap_node_info@map@kmint@@@graph@kmint@@U?$default_delete@V?$basic_node@Umap_node_info@map@kmint@@@graph@kmint@@@std@@@std@@PAV?$basic_node@Umap_node_info@map@kmint@@@graph@kmint@@@?$_Default_allocator_traits@V?$allocator@V?$unique_ptr@V?$basic_node@Umap_node_info@map@kmint@@@graph@kmint@@U?$default_delete@V?$basic_node@Umap_node_info@map@kmint@@@graph@kmint@@@std@@@std@@@std@@@std@@SAXAAV?$allocator@V?$unique_ptr@V?$basic_node@Umap_node_info@map@kmint@@@graph@kmint@@U?$default_delete@V?$basic_node@Umap_node_info@map@kmint@@@graph@kmint@@@std@@@std@@@1@QAV?$unique_ptr@V?$basic_node@Umap_node_info@map@kmint@@@graph@kmint@@U?$default_delete@V?$basic_node@Umap_node_info@map@kmint@@@graph@kmint@@@std@@@1@$$QAPAV?$basic_node@Umap_node_info@map@kmint@@@graph@kmint@@@Z
	??$construct@V?$unique_ptr@V?$basic_node@Umap_node_info@map@kmint@@@graph@kmint@@U?$default_delete@V?$basic_node@Umap_node_info@map@kmint@@@graph@kmint@@@std@@@std@@V12@@?$_Default_allocator_traits@V?$allocator@V?$unique_ptr@V?$basic_node@Umap_node_info@map@kmint@@@graph@kmint@@U?$default_delete@V?$basic_node@Umap_node_info@map@kmint@@@graph@kmint@@@std@@@std@@@std@@@std@@SAXAAV?$allocator@V?$unique_ptr@V?$basic_node@Umap_node_info@map@kmint@@@graph@kmint@@U?$default_delete@V?$basic_node@Umap_node_info@map@kmint@@@graph@kmint@@@std@@@std@@@1@QAV?$unique_ptr@V?$basic_node@Umap_node_info@map@kmint@@@graph@kmint@@U?$default_delete@V?$basic_node@Umap_node_info@map@kmint@@@graph@kmint@@@std@@@1@$$QAV31@@Z
	??$construct@V?$unique_ptr@V?$basic_node@Uno_node_info@graph@kmint@@@graph@kmint@@U?$default_delete@V?$basic_node@Uno_node_info@graph@kmint@@@graph@kmint@@@std@@@std@@PAV?$basic_node@Uno_node_info@graph@kmint@@@graph@kmint@@@?$_Default_allocator_traits@V?$allocator@V?$unique_ptr@V?$basic_node@Uno_node_info@graph@kmint@@@graph@kmint@@U?$default_delete@V?$basic_node@Uno_node_info@graph@kmint@@@graph@kmint@@@std@@@std@@@std@@@std@@SAXAAV?$allocator@V?$unique_ptr@V?$basic_node@Uno_node_info@graph@kmint@@@graph@kmint@@U?$default_delete@V?$basic_node@Uno_node_info@graph@kmint@@@graph@kmint@@@std@@@std@@@1@QAV?$unique_ptr@V?$basic_node@Uno_node_info@graph@kmint@@@graph@kmint@@U?$default_delete@V?$basic_node@Uno_node_info@graph@kmint@@@graph@kmint@@@std@@@1@$$QAPAV?$basic_node@Uno_node_info@graph@kmint@@@graph@kmint@@@Z
	??$construct@V?$unique_ptr@V?$basic_node@Uno_node_info@graph@kmint@@@graph@kmint@@U?$default_delete@V?$basic_node@Uno_node_info@graph@kmint@@@graph@kmint@@@std@@@std@@V12@@?$_Default_allocator_traits@V?$allocator@V?$unique_ptr@V?$basic_node@Uno_node_info@graph@kmint@@@graph@kmint@@U?$default_delete@V?$basic_node@Uno_node_info@graph@kmint@@@graph@kmint@@@std@@@std@@@std@@@std@@SAXAAV?$allocator@V?$unique_ptr@V?$basic_node@Uno_node_info@graph@kmint@@@graph@kmint@@U?$default_delete@V?$basic_node@Uno_node_info@graph@kmint@@@graph@kmint@@@std@@@std@@@1@QAV?$unique_ptr@V?$basic_node@Uno_node_info@graph@kmint@@@graph@kmint@@U?$default_delete@V?$basic_node@Uno_node_info@graph@kmint@@@graph@kmint@@@std@@@1@$$QAV31@@Z
	??$copy@V?$istream_iterator@DDU?$char_traits@D@std@@H@std@@V?$back_insert_iterator@V?$vector@DV?$allocator@D@std@@@std@@@2@@std@@YA?AV?$back_insert_iterator@V?$vector@DV?$allocator@D@std@@@std@@@0@V?$istream_iterator@DDU?$char_traits@D@std@@H@0@0V10@@Z
	??$create@A6APAUSDL_Renderer@@PAUSDL_Window@@HI@ZAAPAU2@HW4SDL_RendererFlags@@@sdl@ui@kmint@@YAPAUSDL_Renderer@@A6APAU3@PAUSDL_Window@@HI@ZAAPAU4@$$QAH$$QAW4SDL_RendererFlags@@@Z
	??$create@A6APAUSDL_Surface@@PBD@ZPBD@sdl@ui@kmint@@YAPAUSDL_Surface@@A6APAU3@PBD@Z$$QAPBD@Z
	??$create@A6APAUSDL_Texture@@PAUSDL_Renderer@@PAUSDL_Surface@@@ZAAPAU2@ABVsurface@sdl@ui@kmint@@@sdl@ui@kmint@@YAPAUSDL_Texture@@A6APAU3@PAUSDL_Renderer@@PAUSDL_Surface@@@ZAAPAU4@ABVsurface@012@@Z
	??$create@A6APAUSDL_Window@@PBDHHHHI@ZAAPBDIIMMW4SDL_WindowFlags@@@sdl@ui@kmint@@YAPAUSDL_Window@@A6APAU3@PBDHHHHI@ZAAPBD$$QAI3$$QAM4$$QAW4SDL_WindowFlags@@@Z
	??$deref_unique_ptr@Vactor@play@kmint@@@util@kmint@@YAAAVactor@play@1@ABV?$unique_ptr@Vactor@play@kmint@@U?$default_delete@Vactor@play@kmint@@@std@@@std@@@Z
	??$deref_unique_ptr_const@Vactor@play@kmint@@@util@kmint@@YAABVactor@play@1@ABV?$unique_ptr@Vactor@play@kmint@@U?$default_delete@Vactor@play@kmint@@@std@@@std@@@Z
	??$destroy@PAD@?$_Default_allocator_traits@V?$allocator@D@std@@@std@@SAXAAV?$allocator@D@1@QAPAD@Z
	??$destroy@PAU?$_Tree_node@U?$pair@$$CBDUtile_info@map@kmint@@@std@@PAX@std@@@?$_Default_allocator_traits@V?$allocator@U?$_Tree_node@U?$pair@$$CBDUtile_info@map@kmint@@@std@@PAX@std@@@std@@@std@@SAXAAV?$allocator@U?$_Tree_node@U?$pair@$$CBDUtile_info@map@kmint@@@std@@PAX@std@@@1@QAPAU?$_Tree_node@U?$pair@$$CBDUtile_info@map@kmint@@@std@@PAX@1@@Z
	??$destroy@PAU?$_Tree_node@U?$pair@$$CBV?$basic_string@DU?$char_traits@D@std@@V?$allocator@D@2@@std@@Vtexture@sdl@ui@kmint@@@std@@PAX@std@@@?$_Default_allocator_traits@V?$allocator@U?$_Tree_node@U?$pair@$$CBV?$basic_string@DU?$char_traits@D@std@@V?$allocator@D@2@@std@@Vtexture@sdl@ui@kmint@@@std@@PAX@std@@@std@@@std@@SAXAAV?$allocator@U?$_Tree_node@U?$pair@$$CBV?$basic_string@DU?$char_traits@D@std@@V?$allocator@D@2@@std@@Vtexture@sdl@ui@kmint@@@std@@PAX@std@@@1@QAPAU?$_Tree_node@U?$pair@$$CBV?$basic_string@DU?$char_traits@D@std@@V?$allocator@D@2@@std@@Vtexture@sdl@ui@kmint@@@std@@PAX@1@@Z
	??$destroy@U?$pair@$$CBDUtile_info@map@kmint@@@std@@@?$_Default_allocator_traits@V?$allocator@U?$_Tree_node@U?$pair@$$CBDUtile_info@map@kmint@@@std@@PAX@std@@@std@@@std@@SAXAAV?$allocator@U?$_Tree_node@U?$pair@$$CBDUtile_info@map@kmint@@@std@@PAX@std@@@1@QAU?$pair@$$CBDUtile_info@map@kmint@@@1@@Z
	??$destroy@U?$pair@$$CBV?$basic_string@DU?$char_traits@D@std@@V?$allocator@D@2@@std@@Vtexture@sdl@ui@kmint@@@std@@@?$_Default_allocator_traits@V?$allocator@U?$_Tree_node@U?$pair@$$CBV?$basic_string@DU?$char_traits@D@std@@V?$allocator@D@2@@std@@Vtexture@sdl@ui@kmint@@@std@@PAX@std@@@std@@@std@@SAXAAV?$allocator@U?$_Tree_node@U?$pair@$$CBV?$basic_string@DU?$char_traits@D@std@@V?$allocator@D@2@@std@@Vtexture@sdl@ui@kmint@@@std@@PAX@std@@@1@QAU?$pair@$$CBV?$basic_string@DU?$char_traits@D@std@@V?$allocator@D@2@@std@@Vtexture@sdl@ui@kmint@@@1@@Z
	??$destroy@U_Container_proxy@std@@@?$_Default_allocator_traits@V?$allocator@U_Container_proxy@std@@@std@@@std@@SAXAAV?$allocator@U_Container_proxy@std@@@1@QAU_Container_proxy@1@@Z
	??$destroy@V?$unique_ptr@V?$basic_edge@Umap_node_info@map@kmint@@@graph@kmint@@U?$default_delete@V?$basic_edge@Umap_node_info@map@kmint@@@graph@kmint@@@std@@@std@@@?$_Default_allocator_traits@V?$allocator@V?$unique_ptr@V?$basic_edge@Umap_node_info@map@kmint@@@graph@kmint@@U?$default_delete@V?$basic_edge@Umap_node_info@map@kmint@@@graph@kmint@@@std@@@std@@@std@@@std@@SAXAAV?$allocator@V?$unique_ptr@V?$basic_edge@Umap_node_info@map@kmint@@@graph@kmint@@U?$default_delete@V?$basic_edge@Umap_node_info@map@kmint@@@graph@kmint@@@std@@@std@@@1@QAV?$unique_ptr@V?$basic_edge@Umap_node_info@map@kmint@@@graph@kmint@@U?$default_delete@V?$basic_edge@Umap_node_info@map@kmint@@@graph@kmint@@@std@@@1@@Z
	??$destroy@V?$unique_ptr@V?$basic_edge@Uno_node_info@graph@kmint@@@graph@kmint@@U?$default_delete@V?$basic_edge@Uno_node_info@graph@kmint@@@graph@kmint@@@std@@@std@@@?$_Default_allocator_traits@V?$allocator@V?$unique_ptr@V?$basic_edge@Uno_node_info@graph@kmint@@@graph@kmint@@U?$default_delete@V?$basic_edge@Uno_node_info@graph@kmint@@@graph@kmint@@@std@@@std@@@std@@@std@@SAXAAV?$allocator@V?$unique_ptr@V?$basic_edge@Uno_node_info@graph@kmint@@@graph@kmint@@U?$default_delete@V?$basic_edge@Uno_node_info@graph@kmint@@@graph@kmint@@@std@@@std@@@1@QAV?$unique_ptr@V?$basic_edge@Uno_node_info@graph@kmint@@@graph@kmint@@U?$default_delete@V?$basic_edge@Uno_node_info@graph@kmint@@@graph@kmint@@@std@@@1@@Z
	??$destroy@V?$unique_ptr@V?$basic_node@Umap_node_info@map@kmint@@@graph@kmint@@U?$default_delete@V?$basic_node@Umap_node_info@map@kmint@@@graph@kmint@@@std@@@std@@@?$_Default_allocator_traits@V?$allocator@V?$unique_ptr@V?$basic_node@Umap_node_info@map@kmint@@@graph@kmint@@U?$default_delete@V?$basic_node@Umap_node_info@map@kmint@@@graph@kmint@@@std@@@std@@@std@@@std@@SAXAAV?$allocator@V?$unique_ptr@V?$basic_node@Umap_node_info@map@kmint@@@graph@kmint@@U?$default_delete@V?$basic_node@Umap_node_info@map@kmint@@@graph@kmint@@@std@@@std@@@1@QAV?$unique_ptr@V?$basic_node@Umap_node_info@map@kmint@@@graph@kmint@@U?$default_delete@V?$basic_node@Umap_node_info@map@kmint@@@graph@kmint@@@std@@@1@@Z
	??$destroy@V?$unique_ptr@V?$basic_node@Uno_node_info@graph@kmint@@@graph@kmint@@U?$default_delete@V?$basic_node@Uno_node_info@graph@kmint@@@graph@kmint@@@std@@@std@@@?$_Default_allocator_traits@V?$allocator@V?$unique_ptr@V?$basic_node@Uno_node_info@graph@kmint@@@graph@kmint@@U?$default_delete@V?$basic_node@Uno_node_info@graph@kmint@@@graph@kmint@@@std@@@std@@@std@@@std@@SAXAAV?$allocator@V?$unique_ptr@V?$basic_node@Uno_node_info@graph@kmint@@@graph@kmint@@U?$default_delete@V?$basic_node@Uno_node_info@graph@kmint@@@graph@kmint@@@std@@@std@@@1@QAV?$unique_ptr@V?$basic_node@Uno_node_info@graph@kmint@@@graph@kmint@@U?$default_delete@V?$basic_node@Uno_node_info@graph@kmint@@@graph@kmint@@@std@@@1@@Z
	??$destroy@V?$unique_ptr@Vactor@play@kmint@@U?$default_delete@Vactor@play@kmint@@@std@@@std@@@?$_Default_allocator_traits@V?$allocator@V?$unique_ptr@Vactor@play@kmint@@U?$default_delete@Vactor@play@kmint@@@std@@@std@@@std@@@std@@SAXAAV?$allocator@V?$unique_ptr@Vactor@play@kmint@@U?$default_delete@Vactor@play@kmint@@@std@@@std@@@1@QAV?$unique_ptr@Vactor@play@kmint@@U?$default_delete@Vactor@play@kmint@@@std@@@1@@Z
	??$distance2@M@math@kmint@@YAMV?$basic_vector2d@M@01@0@Z
	??$distance@M@math@kmint@@YAMV?$basic_vector2d@M@01@0@Z
	??$dot@M@math@kmint@@YAMV?$basic_vector2d@M@01@0@Z
	??$emplace@AADAAUtile_info@map@kmint@@@?$_Tree@V?$_Tmap_traits@DUtile_info@map@kmint@@U?$less@D@std@@V?$allocator@U?$pair@$$CBDUtile_info@map@kmint@@@std@@@5@$0A@@std@@@std@@QAE?AU?$pair@V?$_Tree_iterator@V?$_Tree_val@U?$_Tree_simple_types@U?$pair@$$CBDUtile_info@map@kmint@@@std@@@std@@@std@@@std@@_N@1@AADAAUtile_info@map@kmint@@@Z
	??$emplace@U?$pair@V?$basic_string@DU?$char_traits@D@std@@V?$allocator@D@2@@std@@Vtexture@sdl@ui@kmint@@@std@@@?$_Tree@V?$_Tmap_traits@V?$basic_string@DU?$char_traits@D@std@@V?$allocator@D@2@@std@@Vtexture@sdl@ui@kmint@@U?$less@V?$basic_string@DU?$char_traits@D@std@@V?$allocator@D@2@@std@@@2@V?$allocator@U?$pair@$$CBV?$basic_string@DU?$char_traits@D@std@@V?$allocator@D@2@@std@@Vtexture@sdl@ui@kmint@@@std@@@2@$0A@@std@@@std@@QAE?AU?$pair@V?$_Tree_iterator@V?$_Tree_val@U?$_Tree_simple_types@U?$pair@$$CBV?$basic_string@DU?$char_traits@D@std@@V?$allocator@D@2@@std@@Vtexture@sdl@ui@kmint@@@std@@@std@@@std@@@std@@_N@1@$$QAU?$pair@V?$basic_string@DU?$char_traits@D@std@@V?$allocator@D@2@@std@@Vtexture@sdl@ui@kmint@@@1@@Z
	??$emplace_back@ABD@?$vector@DV?$allocator@D@std@@@std@@QAEAADABD@Z
	??$emplace_back@PAV?$basic_node@Umap_node_info@map@kmint@@@graph@kmint@@@?$vector@V?$unique_ptr@V?$basic_node@Umap_node_info@map@kmint@@@graph@kmint@@U?$default_delete@V?$basic_node@Umap_node_info@map@kmint@@@graph@kmint@@@std@@@std@@V?$allocator@V?$unique_ptr@V?$basic_node@Umap_node_info@map@kmint@@@graph@kmint@@U?$default_delete@V?$basic_node@Umap_node_info@map@kmint@@@graph@kmint@@@std@@@std@@@2@@std@@QAEAAV?$unique_ptr@V?$basic_node@Umap_node_info@map@kmint@@@graph@kmint@@U?$default_delete@V?$basic_node@Umap_node_info@map@kmint@@@graph@kmint@@@std@@@1@$$QAPAV?$basic_node@Umap_node_info@map@kmint@@@graph@kmint@@@Z
	??$emplace_back@PAV?$basic_node@Uno_node_info@graph@kmint@@@graph@kmint@@@?$vector@V?$unique_ptr@V?$basic_node@Uno_node_info@graph@kmint@@@graph@kmint@@U?$default_delete@V?$basic_node@Uno_node_info@graph@kmint@@@graph@kmint@@@std@@@std@@V?$allocator@V?$unique_ptr@V?$basic_node@Uno_node_info@graph@kmint@@@graph@kmint@@U?$default_delete@V?$basic_node@Uno_node_info@graph@kmint@@@graph@kmint@@@std@@@std@@@2@@std@@QAEAAV?$unique_ptr@V?$basic_node@Uno_node_info@graph@kmint@@@graph@kmint@@U?$default_delete@V?$basic_node@Uno_node_info@graph@kmint@@@graph@kmint@@@std@@@1@$$QAPAV?$basic_node@Uno_node_info@graph@kmint@@@graph@kmint@@@Z
	??$emplace_back@PAVactor@play@kmint@@@?$vector@PAVactor@play@kmint@@V?$allocator@PAVactor@play@kmint@@@std@@@std@@QAEAAPAVactor@play@kmint@@$$QAPAV234@@Z
	??$emplace_back@V?$unique_ptr@V?$basic_edge@Umap_node_info@map@kmint@@@graph@kmint@@U?$default_delete@V?$basic_edge@Umap_node_info@map@kmint@@@graph@kmint@@@std@@@std@@@?$vector@V?$unique_ptr@V?$basic_edge@Umap_node_info@map@kmint@@@graph@kmint@@U?$default_delete@V?$basic_edge@Umap_node_info@map@kmint@@@graph@kmint@@@std@@@std@@V?$allocator@V?$unique_ptr@V?$basic_edge@Umap_node_info@map@kmint@@@graph@kmint@@U?$default_delete@V?$basic_edge@Umap_node_info@map@kmint@@@graph@kmint@@@std@@@std@@@2@@std@@QAEAAV?$unique_ptr@V?$basic_edge@Umap_node_info@map@kmint@@@graph@kmint@@U?$default_delete@V?$basic_edge@Umap_node_info@map@kmint@@@graph@kmint@@@std@@@1@$$QAV21@@Z
	??$emplace_back@V?$unique_ptr@V?$basic_edge@Uno_node_info@graph@kmint@@@graph@kmint@@U?$default_delete@V?$basic_edge@Uno_node_info@graph@kmint@@@graph@kmint@@@std@@@std@@@?$vector@V?$unique_ptr@V?$basic_edge@Uno_node_info@graph@kmint@@@graph@kmint@@U?$default_delete@V?$basic_edge@Uno_node_info@graph@kmint@@@graph@kmint@@@std@@@std@@V?$allocator@V?$unique_ptr@V?$basic_edge@Uno_node_info@graph@kmint@@@graph@kmint@@U?$default_delete@V?$basic_edge@Uno_node_info@graph@kmint@@@graph@kmint@@@std@@@std@@@2@@std@@QAEAAV?$unique_ptr@V?$basic_edge@Uno_node_info@graph@kmint@@@graph@kmint@@U?$default_delete@V?$basic_edge@Uno_node_info@graph@kmint@@@graph@kmint@@@std@@@1@$$QAV21@@Z
	??$forward@AAD@std@@YAAADAAD@Z
	??$forward@AAM@std@@YAAAMAAM@Z
	??$forward@AAP6AAAVactor@play@kmint@@ABV?$unique_ptr@Vactor@play@kmint@@U?$default_delete@Vactor@play@kmint@@@std@@@std@@@Z@std@@YAAAP6AAAVactor@play@kmint@@ABV?$unique_ptr@Vactor@play@kmint@@U?$default_delete@Vactor@play@kmint@@@std@@@0@@ZAAP6AAAV123@0@Z@Z
	??$forward@AAP6AABVactor@play@kmint@@ABV?$unique_ptr@Vactor@play@kmint@@U?$default_delete@Vactor@play@kmint@@@std@@@std@@@Z@std@@YAAAP6AABVactor@play@kmint@@ABV?$unique_ptr@Vactor@play@kmint@@U?$default_delete@Vactor@play@kmint@@@std@@@0@@ZAAP6AABV123@0@Z@Z
	??$forward@AAPAU?$_Tree_node@U?$pair@$$CBDUtile_info@map@kmint@@@std@@PAX@std@@@std@@YAAAPAU?$_Tree_node@U?$pair@$$CBDUtile_info@map@kmint@@@std@@PAX@0@AAPAU10@@Z
	??$forward@AAPAU?$_Tree_node@U?$pair@$$CBV?$basic_string@DU?$char_traits@D@std@@V?$allocator@D@2@@std@@Vtexture@sdl@ui@kmint@@@std@@PAX@std@@@std@@YAAAPAU?$_Tree_node@U?$pair@$$CBV?$basic_string@DU?$char_traits@D@std@@V?$allocator@D@2@@std@@Vtexture@sdl@ui@kmint@@@std@@PAX@0@AAPAU10@@Z
	??$forward@AAPAUSDL_Renderer@@@std@@YAAAPAUSDL_Renderer@@AAPAU1@@Z
	??$forward@AAPAUSDL_Surface@@@std@@YAAAPAUSDL_Surface@@AAPAU1@@Z
	??$forward@AAPAUSDL_Texture@@@std@@YAAAPAUSDL_Texture@@AAPAU1@@Z
	??$forward@AAPAUSDL_Window@@@std@@YAAAPAUSDL_Window@@AAPAU1@@Z
	??$forward@AAPAUimpl@frame@ui@kmint@@@std@@YAAAPAUimpl@frame@ui@kmint@@AAPAU1234@@Z
	??$forward@AAPAV?$basic_edge@Umap_node_info@map@kmint@@@graph@kmint@@@std@@YAAAPAV?$basic_edge@Umap_node_info@map@kmint@@@graph@kmint@@AAPAV123@@Z
	??$forward@AAPAV?$basic_edge@Uno_node_info@graph@kmint@@@graph@kmint@@@std@@YAAAPAV?$basic_edge@Uno_node_info@graph@kmint@@@graph@kmint@@AAPAV123@@Z
	??$forward@AAPAV?$basic_node@Umap_node_info@map@kmint@@@graph@kmint@@@std@@YAAAPAV?$basic_node@Umap_node_info@map@kmint@@@graph@kmint@@AAPAV123@@Z
	??$forward@AAPAV?$basic_node@Uno_node_info@graph@kmint@@@graph@kmint@@@std@@YAAAPAV?$basic_node@Uno_node_info@graph@kmint@@@graph@kmint@@AAPAV123@@Z
	??$forward@AAPAV_Facet_base@std@@@std@@YAAAPAV_Facet_base@0@AAPAV10@@Z
	??$forward@AAPAVimpl@app@ui@kmint@@@std@@YAAAPAVimpl@app@ui@kmint@@AAPAV1234@@Z
	??$forward@AAPAVimpl@window@ui@kmint@@@std@@YAAAPAVimpl@window@ui@kmint@@AAPAV1234@@Z
	??$forward@AAPBD@std@@YAAAPBDAAPBD@Z
	??$forward@AAU?$pair@$$CBDUtile_info@map@kmint@@@std@@@std@@YAAAU?$pair@$$CBDUtile_info@map@kmint@@@0@AAU10@@Z
	??$forward@AAU?$pair@$$CBV?$basic_string@DU?$char_traits@D@std@@V?$allocator@D@2@@std@@Vtexture@sdl@ui@kmint@@@std@@@std@@YAAAU?$pair@$$CBV?$basic_string@DU?$char_traits@D@std@@V?$allocator@D@2@@std@@Vtexture@sdl@ui@kmint@@@0@AAU10@@Z
	??$forward@AAUtile_info@map@kmint@@@std@@YAAAUtile_info@map@kmint@@AAU123@@Z
	??$forward@AAV?$_Tree_iterator@V?$_Tree_val@U?$_Tree_simple_types@U?$pair@$$CBDUtile_info@map@kmint@@@std@@@std@@@std@@@std@@@std@@YAAAV?$_Tree_iterator@V?$_Tree_val@U?$_Tree_simple_types@U?$pair@$$CBDUtile_info@map@kmint@@@std@@@std@@@std@@@0@AAV10@@Z
	??$forward@AAV?$_Tree_iterator@V?$_Tree_val@U?$_Tree_simple_types@U?$pair@$$CBV?$basic_string@DU?$char_traits@D@std@@V?$allocator@D@2@@std@@Vtexture@sdl@ui@kmint@@@std@@@std@@@std@@@std@@@std@@YAAAV?$_Tree_iterator@V?$_Tree_val@U?$_Tree_simple_types@U?$pair@$$CBV?$basic_string@DU?$char_traits@D@std@@V?$allocator@D@2@@std@@Vtexture@sdl@ui@kmint@@@std@@@std@@@std@@@0@AAV10@@Z
	??$forward@AAV?$basic_node@Umap_node_info@map@kmint@@@graph@kmint@@@std@@YAAAV?$basic_node@Umap_node_info@map@kmint@@@graph@kmint@@AAV123@@Z
	??$forward@AAV?$basic_node@Uno_node_info@graph@kmint@@@graph@kmint@@@std@@YAAAV?$basic_node@Uno_node_info@graph@kmint@@@graph@kmint@@AAV123@@Z
	??$forward@AAV?$unique_ptr@Vactor@play@kmint@@U?$default_delete@Vactor@play@kmint@@@std@@@std@@@std@@YAAAV?$unique_ptr@Vactor@play@kmint@@U?$default_delete@Vactor@play@kmint@@@std@@@0@AAV10@@Z
	??$forward@ABD@std@@YAABDABD@Z
	??$forward@ABH@std@@YAABHABH@Z
	??$forward@ABQ6AAAVactor@play@kmint@@ABV?$unique_ptr@Vactor@play@kmint@@U?$default_delete@Vactor@play@kmint@@@std@@@std@@@Z@std@@YAABQ6AAAVactor@play@kmint@@ABV?$unique_ptr@Vactor@play@kmint@@U?$default_delete@Vactor@play@kmint@@@std@@@0@@ZABQ6AAAV123@0@Z@Z
	??$forward@ABQ6AABVactor@play@kmint@@ABV?$unique_ptr@Vactor@play@kmint@@U?$default_delete@Vactor@play@kmint@@@std@@@std@@@Z@std@@YAABQ6AABVactor@play@kmint@@ABV?$unique_ptr@Vactor@play@kmint@@U?$default_delete@Vactor@play@kmint@@@std@@@0@@ZABQ6AABV123@0@Z@Z
	??$forward@ABQAD@std@@YAABQADABQAD@Z
	??$forward@ABU?$less@D@std@@@std@@YAABU?$less@D@0@ABU10@@Z
	??$forward@ABU?$less@V?$basic_string@DU?$char_traits@D@std@@V?$allocator@D@2@@std@@@std@@@std@@YAABU?$less@V?$basic_string@DU?$char_traits@D@std@@V?$allocator@D@2@@std@@@0@ABU10@@Z
	??$forward@ABV?$allocator@H@std@@@std@@YAABV?$allocator@H@0@ABV10@@Z
	??$forward@ABV?$basic_node@Umap_node_info@map@kmint@@@graph@kmint@@@std@@YAABV?$basic_node@Umap_node_info@map@kmint@@@graph@kmint@@ABV123@@Z
	??$forward@ABV?$basic_node@Uno_node_info@graph@kmint@@@graph@kmint@@@std@@YAABV?$basic_node@Uno_node_info@graph@kmint@@@graph@kmint@@ABV123@@Z
	??$forward@ABV?$basic_string@DU?$char_traits@D@std@@V?$allocator@D@2@@std@@@std@@YAABV?$basic_string@DU?$char_traits@D@std@@V?$allocator@D@2@@0@ABV10@@Z
	??$forward@ABV?$unique_ptr@Vactor@play@kmint@@U?$default_delete@Vactor@play@kmint@@@std@@@std@@@std@@YAABV?$unique_ptr@Vactor@play@kmint@@U?$default_delete@Vactor@play@kmint@@@std@@@0@ABV10@@Z
	??$forward@ABVsurface@sdl@ui@kmint@@@std@@YAABVsurface@sdl@ui@kmint@@ABV1234@@Z
	??$forward@H@std@@YA$$QAHAAH@Z
	??$forward@I@std@@YA$$QAIAAI@Z
	??$forward@M@std@@YA$$QAMAAM@Z
	??$forward@P6AAAVactor@play@kmint@@ABV?$unique_ptr@Vactor@play@kmint@@U?$default_delete@Vactor@play@kmint@@@std@@@std@@@Z@std@@YA$$QAP6AAAVactor@play@kmint@@ABV?$unique_ptr@Vactor@play@kmint@@U?$default_delete@Vactor@play@kmint@@@std@@@0@@ZAAP6AAAV123@0@Z@Z
	??$forward@P6AABVactor@play@kmint@@ABV?$unique_ptr@Vactor@play@kmint@@U?$default_delete@Vactor@play@kmint@@@std@@@std@@@Z@std@@YA$$QAP6AABVactor@play@kmint@@ABV?$unique_ptr@Vactor@play@kmint@@U?$default_delete@Vactor@play@kmint@@@std@@@0@@ZAAP6AABV123@0@Z@Z
	??$forward@PAUSDL_Renderer@@@std@@YA$$QAPAUSDL_Renderer@@AAPAU1@@Z
	??$forward@PAUSDL_Texture@@@std@@YA$$QAPAUSDL_Texture@@AAPAU1@@Z
	??$forward@PAV?$basic_node@Umap_node_info@map@kmint@@@graph@kmint@@@std@@YA$$QAPAV?$basic_node@Umap_node_info@map@kmint@@@graph@kmint@@AAPAV123@@Z
	??$forward@PAV?$basic_node@Uno_node_info@graph@kmint@@@graph@kmint@@@std@@YA$$QAPAV?$basic_node@Uno_node_info@graph@kmint@@@graph@kmint@@AAPAV123@@Z
	??$forward@PAVactor@play@kmint@@@std@@YA$$QAPAVactor@play@kmint@@AAPAV123@@Z
	??$forward@PBD@std@@YA$$QAPBDAAPBD@Z
	??$forward@U?$default_delete@Uimpl@frame@ui@kmint@@@std@@@std@@YA$$QAU?$default_delete@Uimpl@frame@ui@kmint@@@0@AAU10@@Z
	??$forward@U?$default_delete@V?$basic_edge@Umap_node_info@map@kmint@@@graph@kmint@@@std@@@std@@YA$$QAU?$default_delete@V?$basic_edge@Umap_node_info@map@kmint@@@graph@kmint@@@0@AAU10@@Z
	??$forward@U?$default_delete@V?$basic_edge@Uno_node_info@graph@kmint@@@graph@kmint@@@std@@@std@@YA$$QAU?$default_delete@V?$basic_edge@Uno_node_info@graph@kmint@@@graph@kmint@@@0@AAU10@@Z
	??$forward@U?$default_delete@V?$basic_node@Umap_node_info@map@kmint@@@graph@kmint@@@std@@@std@@YA$$QAU?$default_delete@V?$basic_node@Umap_node_info@map@kmint@@@graph@kmint@@@0@AAU10@@Z
	??$forward@U?$default_delete@V?$basic_node@Uno_node_info@graph@kmint@@@graph@kmint@@@std@@@std@@YA$$QAU?$default_delete@V?$basic_node@Uno_node_info@graph@kmint@@@graph@kmint@@@0@AAU10@@Z
	??$forward@U?$default_delete@Vactor@play@kmint@@@std@@@std@@YA$$QAU?$default_delete@Vactor@play@kmint@@@0@AAU10@@Z
	??$forward@U?$default_delete@Vimpl@app@ui@kmint@@@std@@@std@@YA$$QAU?$default_delete@Vimpl@app@ui@kmint@@@0@AAU10@@Z
	??$forward@U?$default_delete@Vimpl@window@ui@kmint@@@std@@@std@@YA$$QAU?$default_delete@Vimpl@window@ui@kmint@@@0@AAU10@@Z
	??$forward@U?$pair@V?$basic_string@DU?$char_traits@D@std@@V?$allocator@D@2@@std@@Vtexture@sdl@ui@kmint@@@std@@@std@@YA$$QAU?$pair@V?$basic_string@DU?$char_traits@D@std@@V?$allocator@D@2@@std@@Vtexture@sdl@ui@kmint@@@0@AAU10@@Z
	??$forward@U_Container_proxy@std@@@std@@YA$$QAU_Container_proxy@0@AAU10@@Z
	??$forward@U_One_then_variadic_args_t@std@@@std@@YA$$QAU_One_then_variadic_args_t@0@AAU10@@Z
	??$forward@U_Zero_then_variadic_args_t@std@@@std@@YA$$QAU_Zero_then_variadic_args_t@0@AAU10@@Z
	??$forward@V?$_Tree_iterator@V?$_Tree_val@U?$_Tree_simple_types@U?$pair@$$CBDUtile_info@map@kmint@@@std@@@std@@@std@@@std@@@std@@YA$$QAV?$_Tree_iterator@V?$_Tree_val@U?$_Tree_simple_types@U?$pair@$$CBDUtile_info@map@kmint@@@std@@@std@@@std@@@0@AAV10@@Z
	??$forward@V?$_Tree_iterator@V?$_Tree_val@U?$_Tree_simple_types@U?$pair@$$CBV?$basic_string@DU?$char_traits@D@std@@V?$allocator@D@2@@std@@Vtexture@sdl@ui@kmint@@@std@@@std@@@std@@@std@@@std@@YA$$QAV?$_Tree_iterator@V?$_Tree_val@U?$_Tree_simple_types@U?$pair@$$CBV?$basic_string@DU?$char_traits@D@std@@V?$allocator@D@2@@std@@Vtexture@sdl@ui@kmint@@@std@@@std@@@std@@@0@AAV10@@Z
	??$forward@V?$allocator@D@std@@@std@@YA$$QAV?$allocator@D@0@AAV10@@Z
	??$forward@V?$allocator@U?$_Tree_node@U?$pair@$$CBDUtile_info@map@kmint@@@std@@PAX@std@@@std@@@std@@YA$$QAV?$allocator@U?$_Tree_node@U?$pair@$$CBDUtile_info@map@kmint@@@std@@PAX@std@@@0@AAV10@@Z
	??$forward@V?$allocator@V?$unique_ptr@V?$basic_node@Umap_node_info@map@kmint@@@graph@kmint@@U?$default_delete@V?$basic_node@Umap_node_info@map@kmint@@@graph@kmint@@@std@@@std@@@std@@@std@@YA$$QAV?$allocator@V?$unique_ptr@V?$basic_node@Umap_node_info@map@kmint@@@graph@kmint@@U?$default_delete@V?$basic_node@Umap_node_info@map@kmint@@@graph@kmint@@@std@@@std@@@0@AAV10@@Z
	??$forward@V?$allocator@V?$unique_ptr@V?$basic_node@Uno_node_info@graph@kmint@@@graph@kmint@@U?$default_delete@V?$basic_node@Uno_node_info@graph@kmint@@@graph@kmint@@@std@@@std@@@std@@@std@@YA$$QAV?$allocator@V?$unique_ptr@V?$basic_node@Uno_node_info@graph@kmint@@@graph@kmint@@U?$default_delete@V?$basic_node@Uno_node_info@graph@kmint@@@graph@kmint@@@std@@@std@@@0@AAV10@@Z
	??$forward@V?$basic_string@DU?$char_traits@D@std@@V?$allocator@D@2@@std@@@std@@YA$$QAV?$basic_string@DU?$char_traits@D@std@@V?$allocator@D@2@@0@AAV10@@Z
	??$forward@V?$destroyer@USDL_Texture@@@sdl@ui@kmint@@@std@@YA$$QAV?$destroyer@USDL_Texture@@@sdl@ui@kmint@@AAV1234@@Z
	??$forward@V?$unique_ptr@V?$basic_edge@Umap_node_info@map@kmint@@@graph@kmint@@U?$default_delete@V?$basic_edge@Umap_node_info@map@kmint@@@graph@kmint@@@std@@@std@@@std@@YA$$QAV?$unique_ptr@V?$basic_edge@Umap_node_info@map@kmint@@@graph@kmint@@U?$default_delete@V?$basic_edge@Umap_node_info@map@kmint@@@graph@kmint@@@std@@@0@AAV10@@Z
	??$forward@V?$unique_ptr@V?$basic_edge@Uno_node_info@graph@kmint@@@graph@kmint@@U?$default_delete@V?$basic_edge@Uno_node_info@graph@kmint@@@graph@kmint@@@std@@@std@@@std@@YA$$QAV?$unique_ptr@V?$basic_edge@Uno_node_info@graph@kmint@@@graph@kmint@@U?$default_delete@V?$basic_edge@Uno_node_info@graph@kmint@@@graph@kmint@@@std@@@0@AAV10@@Z
	??$forward@V?$unique_ptr@V?$basic_node@Umap_node_info@map@kmint@@@graph@kmint@@U?$default_delete@V?$basic_node@Umap_node_info@map@kmint@@@graph@kmint@@@std@@@std@@@std@@YA$$QAV?$unique_ptr@V?$basic_node@Umap_node_info@map@kmint@@@graph@kmint@@U?$default_delete@V?$basic_node@Umap_node_info@map@kmint@@@graph@kmint@@@std@@@0@AAV10@@Z
	??$forward@V?$unique_ptr@V?$basic_node@Uno_node_info@graph@kmint@@@graph@kmint@@U?$default_delete@V?$basic_node@Uno_node_info@graph@kmint@@@graph@kmint@@@std@@@std@@@std@@YA$$QAV?$unique_ptr@V?$basic_node@Uno_node_info@graph@kmint@@@graph@kmint@@U?$default_delete@V?$basic_node@Uno_node_info@graph@kmint@@@graph@kmint@@@std@@@0@AAV10@@Z
	??$forward@Vtexture@sdl@ui@kmint@@@std@@YA$$QAVtexture@sdl@ui@kmint@@AAV1234@@Z
	??$forward@W4SDL_RendererFlags@@@std@@YA$$QAW4SDL_RendererFlags@@AAW41@@Z
	??$forward@W4SDL_WindowFlags@@@std@@YA$$QAW4SDL_WindowFlags@@AAW41@@Z
	??$forward@_N@std@@YA$$QA_NAA_N@Z
	??$generate_canonical@M$0PPPPPPPP@V?$mersenne_twister_engine@I$0CA@$0CHA@$0BIN@$0BP@$0JJAILANP@$0L@$0PPPPPPPP@$06$0JNCMFGIA@$0P@$0OPMGAAAA@$0BC@$0GMAHIJGF@@std@@@std@@YAMAAV?$mersenne_twister_engine@I$0CA@$0CHA@$0BIN@$0BP@$0JJAILANP@$0L@$0PPPPPPPP@$06$0JNCMFGIA@$0P@$0OPMGAAAA@$0BC@$0GMAHIJGF@@0@@Z
	??$getline@DU?$char_traits@D@std@@V?$allocator@D@2@@std@@YAAAV?$basic_istream@DU?$char_traits@D@std@@@0@$$QAV10@AAV?$basic_string@DU?$char_traits@D@std@@V?$allocator@D@2@@0@D@Z
	??$getline@DU?$char_traits@D@std@@V?$allocator@D@2@@std@@YAAAV?$basic_istream@DU?$char_traits@D@std@@@0@AAV10@AAV?$basic_string@DU?$char_traits@D@std@@V?$allocator@D@2@@0@@Z
	??$invoke@AAP6AAAVactor@play@kmint@@ABV?$unique_ptr@Vactor@play@kmint@@U?$default_delete@Vactor@play@kmint@@@std@@@std@@@ZAAV45@@std@@YAAAVactor@play@kmint@@AAP6AAAV123@ABV?$unique_ptr@Vactor@play@kmint@@U?$default_delete@Vactor@play@kmint@@@std@@@0@@ZAAV40@@Z
	??$invoke@AAP6AABVactor@play@kmint@@ABV?$unique_ptr@Vactor@play@kmint@@U?$default_delete@Vactor@play@kmint@@@std@@@std@@@ZABV45@@std@@YAABVactor@play@kmint@@AAP6AABV123@ABV?$unique_ptr@Vactor@play@kmint@@U?$default_delete@Vactor@play@kmint@@@std@@@0@@Z0@Z
	??$make_pair@ABV?$basic_string@DU?$char_traits@D@std@@V?$allocator@D@2@@std@@Vtexture@sdl@ui@kmint@@@std@@YA?AU?$pair@V?$basic_string@DU?$char_traits@D@std@@V?$allocator@D@2@@std@@Vtexture@sdl@ui@kmint@@@0@ABV?$basic_string@DU?$char_traits@D@std@@V?$allocator@D@2@@0@$$QAVtexture@sdl@ui@kmint@@@Z
	??$make_unique@V?$basic_edge@Umap_node_info@map@kmint@@@graph@kmint@@AAV?$basic_node@Umap_node_info@map@kmint@@@23@ABV423@AAM$0A@@std@@YA?AV?$unique_ptr@V?$basic_edge@Umap_node_info@map@kmint@@@graph@kmint@@U?$default_delete@V?$basic_edge@Umap_node_info@map@kmint@@@graph@kmint@@@std@@@0@AAV?$basic_node@Umap_node_info@map@kmint@@@graph@kmint@@ABV234@AAM@Z
	??$make_unique@V?$basic_edge@Uno_node_info@graph@kmint@@@graph@kmint@@AAV?$basic_node@Uno_node_info@graph@kmint@@@23@ABV423@AAM$0A@@std@@YA?AV?$unique_ptr@V?$basic_edge@Uno_node_info@graph@kmint@@@graph@kmint@@U?$default_delete@V?$basic_edge@Uno_node_info@graph@kmint@@@graph@kmint@@@std@@@0@AAV?$basic_node@Uno_node_info@graph@kmint@@@graph@kmint@@ABV234@AAM@Z
	??$move@AAD@std@@YA$$QADAAD@Z
	??$move@AAP6AAAVactor@play@kmint@@ABV?$unique_ptr@Vactor@play@kmint@@U?$default_delete@Vactor@play@kmint@@@std@@@std@@@Z@std@@YA$$QAP6AAAVactor@play@kmint@@ABV?$unique_ptr@Vactor@play@kmint@@U?$default_delete@Vactor@play@kmint@@@std@@@0@@ZAAP6AAAV123@0@Z@Z
	??$move@AAP6AABVactor@play@kmint@@ABV?$unique_ptr@Vactor@play@kmint@@U?$default_delete@Vactor@play@kmint@@@std@@@std@@@Z@std@@YA$$QAP6AABVactor@play@kmint@@ABV?$unique_ptr@Vactor@play@kmint@@U?$default_delete@Vactor@play@kmint@@@std@@@0@@ZAAP6AABV123@0@Z@Z
	??$move@AAUmap_node_info@map@kmint@@@std@@YA$$QAUmap_node_info@map@kmint@@AAU123@@Z
	??$move@AAV?$allocator@D@std@@@std@@YA$$QAV?$allocator@D@0@AAV10@@Z
	??$move@AAV?$allocator@V?$unique_ptr@V?$basic_node@Umap_node_info@map@kmint@@@graph@kmint@@U?$default_delete@V?$basic_node@Umap_node_info@map@kmint@@@graph@kmint@@@std@@@std@@@std@@@std@@YA$$QAV?$allocator@V?$unique_ptr@V?$basic_node@Umap_node_info@map@kmint@@@graph@kmint@@U?$default_delete@V?$basic_node@Umap_node_info@map@kmint@@@graph@kmint@@@std@@@std@@@0@AAV10@@Z
	??$move@AAV?$allocator@V?$unique_ptr@V?$basic_node@Uno_node_info@graph@kmint@@@graph@kmint@@U?$default_delete@V?$basic_node@Uno_node_info@graph@kmint@@@graph@kmint@@@std@@@std@@@std@@@std@@YA$$QAV?$allocator@V?$unique_ptr@V?$basic_node@Uno_node_info@graph@kmint@@@graph@kmint@@U?$default_delete@V?$basic_node@Uno_node_info@graph@kmint@@@graph@kmint@@@std@@@std@@@0@AAV10@@Z
	??$move@AAV?$basic_graph@Umap_node_info@map@kmint@@@graph@kmint@@@std@@YA$$QAV?$basic_graph@Umap_node_info@map@kmint@@@graph@kmint@@AAV123@@Z
	??$move@AAV?$basic_istream@DU?$char_traits@D@std@@@std@@@std@@YA$$QAV?$basic_istream@DU?$char_traits@D@std@@@0@AAV10@@Z
	??$move@AAV?$basic_string@DU?$char_traits@D@std@@V?$allocator@D@2@@std@@@std@@YA$$QAV?$basic_string@DU?$char_traits@D@std@@V?$allocator@D@2@@0@AAV10@@Z
	??$move@AAV?$function@$$A6AAAVactor@play@kmint@@AAV?$unique_ptr@Vactor@play@kmint@@U?$default_delete@Vactor@play@kmint@@@std@@@std@@@Z@std@@@std@@YA$$QAV?$function@$$A6AAAVactor@play@kmint@@AAV?$unique_ptr@Vactor@play@kmint@@U?$default_delete@Vactor@play@kmint@@@std@@@std@@@Z@0@AAV10@@Z
	??$move@AAV?$function@$$A6AABVactor@play@kmint@@ABV?$unique_ptr@Vactor@play@kmint@@U?$default_delete@Vactor@play@kmint@@@std@@@std@@@Z@std@@@std@@YA$$QAV?$function@$$A6AABVactor@play@kmint@@ABV?$unique_ptr@Vactor@play@kmint@@U?$default_delete@Vactor@play@kmint@@@std@@@std@@@Z@0@AAV10@@Z
	??$move@AAV?$unique_ptr@V?$basic_edge@Umap_node_info@map@kmint@@@graph@kmint@@U?$default_delete@V?$basic_edge@Umap_node_info@map@kmint@@@graph@kmint@@@std@@@std@@@std@@YA$$QAV?$unique_ptr@V?$basic_edge@Umap_node_info@map@kmint@@@graph@kmint@@U?$default_delete@V?$basic_edge@Umap_node_info@map@kmint@@@graph@kmint@@@std@@@0@AAV10@@Z
	??$move@AAV?$unique_ptr@V?$basic_edge@Uno_node_info@graph@kmint@@@graph@kmint@@U?$default_delete@V?$basic_edge@Uno_node_info@graph@kmint@@@graph@kmint@@@std@@@std@@@std@@YA$$QAV?$unique_ptr@V?$basic_edge@Uno_node_info@graph@kmint@@@graph@kmint@@U?$default_delete@V?$basic_edge@Uno_node_info@graph@kmint@@@graph@kmint@@@std@@@0@AAV10@@Z
	??$move@AAV?$unique_ptr@V?$basic_node@Umap_node_info@map@kmint@@@graph@kmint@@U?$default_delete@V?$basic_node@Umap_node_info@map@kmint@@@graph@kmint@@@std@@@std@@@std@@YA$$QAV?$unique_ptr@V?$basic_node@Umap_node_info@map@kmint@@@graph@kmint@@U?$default_delete@V?$basic_node@Umap_node_info@map@kmint@@@graph@kmint@@@std@@@0@AAV10@@Z
	??$move@AAV?$unique_ptr@V?$basic_node@Uno_node_info@graph@kmint@@@graph@kmint@@U?$default_delete@V?$basic_node@Uno_node_info@graph@kmint@@@graph@kmint@@@std@@@std@@@std@@YA$$QAV?$unique_ptr@V?$basic_node@Uno_node_info@graph@kmint@@@graph@kmint@@U?$default_delete@V?$basic_node@Uno_node_info@graph@kmint@@@graph@kmint@@@std@@@0@AAV10@@Z
	??$move@AAV?$unique_ptr@Vactor@play@kmint@@U?$default_delete@Vactor@play@kmint@@@std@@@std@@@std@@YA$$QAV?$unique_ptr@Vactor@play@kmint@@U?$default_delete@Vactor@play@kmint@@@std@@@0@AAV10@@Z
	??$move@AAV?$vector@V?$unique_ptr@V?$basic_node@Umap_node_info@map@kmint@@@graph@kmint@@U?$default_delete@V?$basic_node@Umap_node_info@map@kmint@@@graph@kmint@@@std@@@std@@V?$allocator@V?$unique_ptr@V?$basic_node@Umap_node_info@map@kmint@@@graph@kmint@@U?$default_delete@V?$basic_node@Umap_node_info@map@kmint@@@graph@kmint@@@std@@@std@@@2@@std@@@std@@YA$$QAV?$vector@V?$unique_ptr@V?$basic_node@Umap_node_info@map@kmint@@@graph@kmint@@U?$default_delete@V?$basic_node@Umap_node_info@map@kmint@@@graph@kmint@@@std@@@std@@V?$allocator@V?$unique_ptr@V?$basic_node@Umap_node_info@map@kmint@@@graph@kmint@@U?$default_delete@V?$basic_node@Umap_node_info@map@kmint@@@graph@kmint@@@std@@@std@@@2@@0@AAV10@@Z
	??$move@AAV?$vector@V?$unique_ptr@V?$basic_node@Uno_node_info@graph@kmint@@@graph@kmint@@U?$default_delete@V?$basic_node@Uno_node_info@graph@kmint@@@graph@kmint@@@std@@@std@@V?$allocator@V?$unique_ptr@V?$basic_node@Uno_node_info@graph@kmint@@@graph@kmint@@U?$default_delete@V?$basic_node@Uno_node_info@graph@kmint@@@graph@kmint@@@std@@@std@@@2@@std@@@std@@YA$$QAV?$vector@V?$unique_ptr@V?$basic_node@Uno_node_info@graph@kmint@@@graph@kmint@@U?$default_delete@V?$basic_node@Uno_node_info@graph@kmint@@@graph@kmint@@@std@@@std@@V?$allocator@V?$unique_ptr@V?$basic_node@Uno_node_info@graph@kmint@@@graph@kmint@@U?$default_delete@V?$basic_node@Uno_node_info@graph@kmint@@@graph@kmint@@@std@@@std@@@2@@0@AAV10@@Z
	??$norm2@M@math@kmint@@YAMV?$basic_vector2d@M@01@@Z
	??$norm@M@math@kmint@@YAMV?$basic_vector2d@M@01@@Z
	??$read_basic_graph@Uno_node_info@graph@kmint@@@graph@kmint@@YA?AV?$basic_graph@Uno_node_info@graph@kmint@@@01@AAV?$basic_istream@DU?$char_traits@D@std@@@std@@@Z
	??$swap@DX@std@@YAXAAD0@Z
	??$use_facet@V?$ctype@D@std@@@std@@YAABV?$ctype@D@0@ABVlocale@0@@Z
	??0?$_Func_base@AAVactor@play@kmint@@AAV?$unique_ptr@Vactor@play@kmint@@U?$default_delete@Vactor@play@kmint@@@std@@@std@@@std@@QAE@XZ
	??0?$_Func_base@ABVactor@play@kmint@@ABV?$unique_ptr@Vactor@play@kmint@@U?$default_delete@Vactor@play@kmint@@@std@@@std@@@std@@QAE@XZ
	??0?$_Func_class@AAVactor@play@kmint@@AAV?$unique_ptr@Vactor@play@kmint@@U?$default_delete@Vactor@play@kmint@@@std@@@std@@@std@@QAE@XZ
	??0?$_Func_class@ABVactor@play@kmint@@ABV?$unique_ptr@Vactor@play@kmint@@U?$default_delete@Vactor@play@kmint@@@std@@@std@@@std@@QAE@XZ
	??0?$_Rng_from_urng@IV?$mersenne_twister_engine@I$0CA@$0CHA@$0BIN@$0BP@$0JJAILANP@$0L@$0PPPPPPPP@$06$0JNCMFGIA@$0P@$0OPMGAAAA@$0BC@$0GMAHIJGF@@std@@@std@@QAE@AAV?$mersenne_twister_engine@I$0CA@$0CHA@$0BIN@$0BP@$0JJAILANP@$0L@$0PPPPPPPP@$06$0JNCMFGIA@$0P@$0OPMGAAAA@$0BC@$0GMAHIJGF@@1@@Z
	??0?$_String_alloc@U?$_String_base_types@DV?$allocator@D@std@@@std@@@std@@QAE@XZ
	??0?$_String_val@U?$_Simple_types@D@std@@@std@@QAE@XZ
	??0?$_Tree@V?$_Tmap_traits@DUtile_info@map@kmint@@U?$less@D@std@@V?$allocator@U?$pair@$$CBDUtile_info@map@kmint@@@std@@@5@$0A@@std@@@std@@QAE@ABU?$less@D@1@@Z
	??0?$_Tree@V?$_Tmap_traits@V?$basic_string@DU?$char_traits@D@std@@V?$allocator@D@2@@std@@Vtexture@sdl@ui@kmint@@U?$less@V?$basic_string@DU?$char_traits@D@std@@V?$allocator@D@2@@std@@@2@V?$allocator@U?$pair@$$CBV?$basic_string@DU?$char_traits@D@std@@V?$allocator@D@2@@std@@Vtexture@sdl@ui@kmint@@@std@@@2@$0A@@std@@@std@@QAE@ABU?$less@V?$basic_string@DU?$char_traits@D@std@@V?$allocator@D@2@@std@@@1@@Z
	??0?$_Tree_comp_alloc@V?$_Tmap_traits@DUtile_info@map@kmint@@U?$less@D@std@@V?$allocator@U?$pair@$$CBDUtile_info@map@kmint@@@std@@@5@$0A@@std@@@std@@QAE@ABU?$less@D@1@@Z
	??0?$_Tree_comp_alloc@V?$_Tmap_traits@V?$basic_string@DU?$char_traits@D@std@@V?$allocator@D@2@@std@@Vtexture@sdl@ui@kmint@@U?$less@V?$basic_string@DU?$char_traits@D@std@@V?$allocator@D@2@@std@@@2@V?$allocator@U?$pair@$$CBV?$basic_string@DU?$char_traits@D@std@@V?$allocator@D@2@@std@@Vtexture@sdl@ui@kmint@@@std@@@2@$0A@@std@@@std@@QAE@ABU?$less@V?$basic_string@DU?$char_traits@D@std@@V?$allocator@D@2@@std@@@1@@Z
	??0?$_Tree_const_iterator@V?$_Tree_val@U?$_Tree_simple_types@U?$pair@$$CBDUtile_info@map@kmint@@@std@@@std@@@std@@@std@@QAE@$$QAV01@@Z
	??0?$_Tree_const_iterator@V?$_Tree_val@U?$_Tree_simple_types@U?$pair@$$CBDUtile_info@map@kmint@@@std@@@std@@@std@@@std@@QAE@ABV01@@Z
	??0?$_Tree_const_iterator@V?$_Tree_val@U?$_Tree_simple_types@U?$pair@$$CBDUtile_info@map@kmint@@@std@@@std@@@std@@@std@@QAE@PAU?$_Tree_node@U?$pair@$$CBDUtile_info@map@kmint@@@std@@PAX@1@PBV?$_Tree_val@U?$_Tree_simple_types@U?$pair@$$CBDUtile_info@map@kmint@@@std@@@std@@@1@@Z
	??0?$_Tree_const_iterator@V?$_Tree_val@U?$_Tree_simple_types@U?$pair@$$CBV?$basic_string@DU?$char_traits@D@std@@V?$allocator@D@2@@std@@Vtexture@sdl@ui@kmint@@@std@@@std@@@std@@@std@@QAE@$$QAV01@@Z
	??0?$_Tree_const_iterator@V?$_Tree_val@U?$_Tree_simple_types@U?$pair@$$CBV?$basic_string@DU?$char_traits@D@std@@V?$allocator@D@2@@std@@Vtexture@sdl@ui@kmint@@@std@@@std@@@std@@@std@@QAE@ABV01@@Z
	??0?$_Tree_const_iterator@V?$_Tree_val@U?$_Tree_simple_types@U?$pair@$$CBV?$basic_string@DU?$char_traits@D@std@@V?$allocator@D@2@@std@@Vtexture@sdl@ui@kmint@@@std@@@std@@@std@@@std@@QAE@PAU?$_Tree_node@U?$pair@$$CBV?$basic_string@DU?$char_traits@D@std@@V?$allocator@D@2@@std@@Vtexture@sdl@ui@kmint@@@std@@PAX@1@PBV?$_Tree_val@U?$_Tree_simple_types@U?$pair@$$CBV?$basic_string@DU?$char_traits@D@std@@V?$allocator@D@2@@std@@Vtexture@sdl@ui@kmint@@@std@@@std@@@1@@Z
	??0?$_Tree_iterator@V?$_Tree_val@U?$_Tree_simple_types@U?$pair@$$CBDUtile_info@map@kmint@@@std@@@std@@@std@@@std@@QAE@$$QAV01@@Z
	??0?$_Tree_iterator@V?$_Tree_val@U?$_Tree_simple_types@U?$pair@$$CBDUtile_info@map@kmint@@@std@@@std@@@std@@@std@@QAE@ABV01@@Z
	??0?$_Tree_iterator@V?$_Tree_val@U?$_Tree_simple_types@U?$pair@$$CBDUtile_info@map@kmint@@@std@@@std@@@std@@@std@@QAE@PAU?$_Tree_node@U?$pair@$$CBDUtile_info@map@kmint@@@std@@PAX@1@PBV?$_Tree_val@U?$_Tree_simple_types@U?$pair@$$CBDUtile_info@map@kmint@@@std@@@std@@@1@@Z
	??0?$_Tree_iterator@V?$_Tree_val@U?$_Tree_simple_types@U?$pair@$$CBV?$basic_string@DU?$char_traits@D@std@@V?$allocator@D@2@@std@@Vtexture@sdl@ui@kmint@@@std@@@std@@@std@@@std@@QAE@$$QAV01@@Z
	??0?$_Tree_iterator@V?$_Tree_val@U?$_Tree_simple_types@U?$pair@$$CBV?$basic_string@DU?$char_traits@D@std@@V?$allocator@D@2@@std@@Vtexture@sdl@ui@kmint@@@std@@@std@@@std@@@std@@QAE@ABV01@@Z
	??0?$_Tree_iterator@V?$_Tree_val@U?$_Tree_simple_types@U?$pair@$$CBV?$basic_string@DU?$char_traits@D@std@@V?$allocator@D@2@@std@@Vtexture@sdl@ui@kmint@@@std@@@std@@@std@@@std@@QAE@PAU?$_Tree_node@U?$pair@$$CBV?$basic_string@DU?$char_traits@D@std@@V?$allocator@D@2@@std@@Vtexture@sdl@ui@kmint@@@std@@PAX@1@PBV?$_Tree_val@U?$_Tree_simple_types@U?$pair@$$CBV?$basic_string@DU?$char_traits@D@std@@V?$allocator@D@2@@std@@Vtexture@sdl@ui@kmint@@@std@@@std@@@1@@Z
	??0?$_Tree_unchecked_const_iterator@V?$_Tree_val@U?$_Tree_simple_types@U?$pair@$$CBDUtile_info@map@kmint@@@std@@@std@@@std@@U_Iterator_base12@2@@std@@QAE@$$QAV01@@Z
	??0?$_Tree_unchecked_const_iterator@V?$_Tree_val@U?$_Tree_simple_types@U?$pair@$$CBDUtile_info@map@kmint@@@std@@@std@@@std@@U_Iterator_base12@2@@std@@QAE@ABV01@@Z
	??0?$_Tree_unchecked_const_iterator@V?$_Tree_val@U?$_Tree_simple_types@U?$pair@$$CBDUtile_info@map@kmint@@@std@@@std@@@std@@U_Iterator_base12@2@@std@@QAE@PAU?$_Tree_node@U?$pair@$$CBDUtile_info@map@kmint@@@std@@PAX@1@PBV?$_Tree_val@U?$_Tree_simple_types@U?$pair@$$CBDUtile_info@map@kmint@@@std@@@std@@@1@@Z
	??0?$_Tree_unchecked_const_iterator@V?$_Tree_val@U?$_Tree_simple_types@U?$pair@$$CBV?$basic_string@DU?$char_traits@D@std@@V?$allocator@D@2@@std@@Vtexture@sdl@ui@kmint@@@std@@@std@@@std@@U_Iterator_base12@2@@std@@QAE@$$QAV01@@Z
	??0?$_Tree_unchecked_const_iterator@V?$_Tree_val@U?$_Tree_simple_types@U?$pair@$$CBV?$basic_string@DU?$char_traits@D@std@@V?$allocator@D@2@@std@@Vtexture@sdl@ui@kmint@@@std@@@std@@@std@@U_Iterator_base12@2@@std@@QAE@ABV01@@Z
	??0?$_Tree_unchecked_const_iterator@V?$_Tree_val@U?$_Tree_simple_types@U?$pair@$$CBV?$basic_string@DU?$char_traits@D@std@@V?$allocator@D@2@@std@@Vtexture@sdl@ui@kmint@@@std@@@std@@@std@@U_Iterator_base12@2@@std@@QAE@PAU?$_Tree_node@U?$pair@$$CBV?$basic_string@DU?$char_traits@D@std@@V?$allocator@D@2@@std@@Vtexture@sdl@ui@kmint@@@std@@PAX@1@PBV?$_Tree_val@U?$_Tree_simple_types@U?$pair@$$CBV?$basic_string@DU?$char_traits@D@std@@V?$allocator@D@2@@std@@Vtexture@sdl@ui@kmint@@@std@@@std@@@1@@Z
	??0?$_Tree_val@U?$_Tree_simple_types@U?$pair@$$CBDUtile_info@map@kmint@@@std@@@std@@@std@@QAE@XZ
	??0?$_Tree_val@U?$_Tree_simple_types@U?$pair@$$CBV?$basic_string@DU?$char_traits@D@std@@V?$allocator@D@2@@std@@Vtexture@sdl@ui@kmint@@@std@@@std@@@std@@QAE@XZ
	??0?$_Uninitialized_backout_al@PAHV?$allocator@H@std@@@std@@QAE@PAHAAV?$allocator@H@1@@Z
	??0?$_Uninitialized_backout_al@PAV?$unique_ptr@V?$basic_edge@Umap_node_info@map@kmint@@@graph@kmint@@U?$default_delete@V?$basic_edge@Umap_node_info@map@kmint@@@graph@kmint@@@std@@@std@@V?$allocator@V?$unique_ptr@V?$basic_edge@Umap_node_info@map@kmint@@@graph@kmint@@U?$default_delete@V?$basic_edge@Umap_node_info@map@kmint@@@graph@kmint@@@std@@@std@@@2@@std@@QAE@PAV?$unique_ptr@V?$basic_edge@Umap_node_info@map@kmint@@@graph@kmint@@U?$default_delete@V?$basic_edge@Umap_node_info@map@kmint@@@graph@kmint@@@std@@@1@AAV?$allocator@V?$unique_ptr@V?$basic_edge@Umap_node_info@map@kmint@@@graph@kmint@@U?$default_delete@V?$basic_edge@Umap_node_info@map@kmint@@@graph@kmint@@@std@@@std@@@1@@Z
	??0?$_Uninitialized_backout_al@PAV?$unique_ptr@V?$basic_edge@Uno_node_info@graph@kmint@@@graph@kmint@@U?$default_delete@V?$basic_edge@Uno_node_info@graph@kmint@@@graph@kmint@@@std@@@std@@V?$allocator@V?$unique_ptr@V?$basic_edge@Uno_node_info@graph@kmint@@@graph@kmint@@U?$default_delete@V?$basic_edge@Uno_node_info@graph@kmint@@@graph@kmint@@@std@@@std@@@2@@std@@QAE@PAV?$unique_ptr@V?$basic_edge@Uno_node_info@graph@kmint@@@graph@kmint@@U?$default_delete@V?$basic_edge@Uno_node_info@graph@kmint@@@graph@kmint@@@std@@@1@AAV?$allocator@V?$unique_ptr@V?$basic_edge@Uno_node_info@graph@kmint@@@graph@kmint@@U?$default_delete@V?$basic_edge@Uno_node_info@graph@kmint@@@graph@kmint@@@std@@@std@@@1@@Z
	??0?$_Uninitialized_backout_al@PAV?$unique_ptr@V?$basic_node@Umap_node_info@map@kmint@@@graph@kmint@@U?$default_delete@V?$basic_node@Umap_node_info@map@kmint@@@graph@kmint@@@std@@@std@@V?$allocator@V?$unique_ptr@V?$basic_node@Umap_node_info@map@kmint@@@graph@kmint@@U?$default_delete@V?$basic_node@Umap_node_info@map@kmint@@@graph@kmint@@@std@@@std@@@2@@std@@QAE@PAV?$unique_ptr@V?$basic_node@Umap_node_info@map@kmint@@@graph@kmint@@U?$default_delete@V?$basic_node@Umap_node_info@map@kmint@@@graph@kmint@@@std@@@1@AAV?$allocator@V?$unique_ptr@V?$basic_node@Umap_node_info@map@kmint@@@graph@kmint@@U?$default_delete@V?$basic_node@Umap_node_info@map@kmint@@@graph@kmint@@@std@@@std@@@1@@Z
	??0?$_Uninitialized_backout_al@PAV?$unique_ptr@V?$basic_node@Uno_node_info@graph@kmint@@@graph@kmint@@U?$default_delete@V?$basic_node@Uno_node_info@graph@kmint@@@graph@kmint@@@std@@@std@@V?$allocator@V?$unique_ptr@V?$basic_node@Uno_node_info@graph@kmint@@@graph@kmint@@U?$default_delete@V?$basic_node@Uno_node_info@graph@kmint@@@graph@kmint@@@std@@@std@@@2@@std@@QAE@PAV?$unique_ptr@V?$basic_node@Uno_node_info@graph@kmint@@@graph@kmint@@U?$default_delete@V?$basic_node@Uno_node_info@graph@kmint@@@graph@kmint@@@std@@@1@AAV?$allocator@V?$unique_ptr@V?$basic_node@Uno_node_info@graph@kmint@@@graph@kmint@@U?$default_delete@V?$basic_node@Uno_node_info@graph@kmint@@@graph@kmint@@@std@@@std@@@1@@Z
	??0?$_Vector_alloc@U?$_Vec_base_types@DV?$allocator@D@std@@@std@@@std@@QAE@XZ
	??0?$_Vector_alloc@U?$_Vec_base_types@V?$unique_ptr@V?$basic_edge@Umap_node_info@map@kmint@@@graph@kmint@@U?$default_delete@V?$basic_edge@Umap_node_info@map@kmint@@@graph@kmint@@@std@@@std@@V?$allocator@V?$unique_ptr@V?$basic_edge@Umap_node_info@map@kmint@@@graph@kmint@@U?$default_delete@V?$basic_edge@Umap_node_info@map@kmint@@@graph@kmint@@@std@@@std@@@2@@std@@@std@@QAE@XZ
	??0?$_Vector_alloc@U?$_Vec_base_types@V?$unique_ptr@V?$basic_edge@Uno_node_info@graph@kmint@@@graph@kmint@@U?$default_delete@V?$basic_edge@Uno_node_info@graph@kmint@@@graph@kmint@@@std@@@std@@V?$allocator@V?$unique_ptr@V?$basic_edge@Uno_node_info@graph@kmint@@@graph@kmint@@U?$default_delete@V?$basic_edge@Uno_node_info@graph@kmint@@@graph@kmint@@@std@@@std@@@2@@std@@@std@@QAE@XZ
	??0?$_Vector_alloc@U?$_Vec_base_types@V?$unique_ptr@V?$basic_node@Umap_node_info@map@kmint@@@graph@kmint@@U?$default_delete@V?$basic_node@Umap_node_info@map@kmint@@@graph@kmint@@@std@@@std@@V?$allocator@V?$unique_ptr@V?$basic_node@Umap_node_info@map@kmint@@@graph@kmint@@U?$default_delete@V?$basic_node@Umap_node_info@map@kmint@@@graph@kmint@@@std@@@std@@@2@@std@@@std@@QAE@XZ
	??0?$_Vector_alloc@U?$_Vec_base_types@V?$unique_ptr@V?$basic_node@Uno_node_info@graph@kmint@@@graph@kmint@@U?$default_delete@V?$basic_node@Uno_node_info@graph@kmint@@@graph@kmint@@@std@@@std@@V?$allocator@V?$unique_ptr@V?$basic_node@Uno_node_info@graph@kmint@@@graph@kmint@@U?$default_delete@V?$basic_node@Uno_node_info@graph@kmint@@@graph@kmint@@@std@@@std@@@2@@std@@@std@@QAE@XZ
	??0?$_Vector_const_iterator@V?$_Vector_val@U?$_Simple_types@V?$unique_ptr@Vactor@play@kmint@@U?$default_delete@Vactor@play@kmint@@@std@@@std@@@std@@@std@@@std@@QAE@$$QAV01@@Z
	??0?$_Vector_const_iterator@V?$_Vector_val@U?$_Simple_types@V?$unique_ptr@Vactor@play@kmint@@U?$default_delete@Vactor@play@kmint@@@std@@@std@@@std@@@std@@@std@@QAE@ABV01@@Z
	??0?$_Vector_const_iterator@V?$_Vector_val@U?$_Simple_types@V?$unique_ptr@Vactor@play@kmint@@U?$default_delete@Vactor@play@kmint@@@std@@@std@@@std@@@std@@@std@@QAE@PAV?$unique_ptr@Vactor@play@kmint@@U?$default_delete@Vactor@play@kmint@@@std@@@1@PBU_Container_base12@1@@Z
	??0?$_Vector_iterator@V?$_Vector_val@U?$_Simple_types@V?$unique_ptr@Vactor@play@kmint@@U?$default_delete@Vactor@play@kmint@@@std@@@std@@@std@@@std@@@std@@QAE@$$QAV01@@Z
	??0?$_Vector_iterator@V?$_Vector_val@U?$_Simple_types@V?$unique_ptr@Vactor@play@kmint@@U?$default_delete@Vactor@play@kmint@@@std@@@std@@@std@@@std@@@std@@QAE@ABV01@@Z
	??0?$_Vector_iterator@V?$_Vector_val@U?$_Simple_types@V?$unique_ptr@Vactor@play@kmint@@U?$default_delete@Vactor@play@kmint@@@std@@@std@@@std@@@std@@@std@@QAE@PAV?$unique_ptr@Vactor@play@kmint@@U?$default_delete@Vactor@play@kmint@@@std@@@1@PBU_Container_base12@1@@Z
	??0?$_Vector_val@U?$_Simple_types@D@std@@@std@@QAE@XZ
	??0?$_Vector_val@U?$_Simple_types@H@std@@@std@@QAE@XZ
	??0?$_Vector_val@U?$_Simple_types@V?$unique_ptr@V?$basic_edge@Umap_node_info@map@kmint@@@graph@kmint@@U?$default_delete@V?$basic_edge@Umap_node_info@map@kmint@@@graph@kmint@@@std@@@std@@@std@@@std@@QAE@XZ
	??0?$_Vector_val@U?$_Simple_types@V?$unique_ptr@V?$basic_edge@Uno_node_info@graph@kmint@@@graph@kmint@@U?$default_delete@V?$basic_edge@Uno_node_info@graph@kmint@@@graph@kmint@@@std@@@std@@@std@@@std@@QAE@XZ
	??0?$_Vector_val@U?$_Simple_types@V?$unique_ptr@V?$basic_node@Umap_node_info@map@kmint@@@graph@kmint@@U?$default_delete@V?$basic_node@Umap_node_info@map@kmint@@@graph@kmint@@@std@@@std@@@std@@@std@@QAE@XZ
	??0?$_Vector_val@U?$_Simple_types@V?$unique_ptr@V?$basic_node@Uno_node_info@graph@kmint@@@graph@kmint@@U?$default_delete@V?$basic_node@Uno_node_info@graph@kmint@@@graph@kmint@@@std@@@std@@@std@@@std@@QAE@XZ
	??0?$allocator@D@std@@QAE@XZ
	??0?$allocator@H@std@@QAE@XZ
	??0?$allocator@U?$_Tree_node@U?$pair@$$CBDUtile_info@map@kmint@@@std@@PAX@std@@@std@@QAE@XZ
	??0?$allocator@U?$_Tree_node@U?$pair@$$CBV?$basic_string@DU?$char_traits@D@std@@V?$allocator@D@2@@std@@Vtexture@sdl@ui@kmint@@@std@@PAX@std@@@std@@QAE@XZ
	??0?$allocator@V?$unique_ptr@V?$basic_edge@Umap_node_info@map@kmint@@@graph@kmint@@U?$default_delete@V?$basic_edge@Umap_node_info@map@kmint@@@graph@kmint@@@std@@@std@@@std@@QAE@XZ
	??0?$allocator@V?$unique_ptr@V?$basic_edge@Uno_node_info@graph@kmint@@@graph@kmint@@U?$default_delete@V?$basic_edge@Uno_node_info@graph@kmint@@@graph@kmint@@@std@@@std@@@std@@QAE@XZ
	??0?$allocator@V?$unique_ptr@V?$basic_node@Umap_node_info@map@kmint@@@graph@kmint@@U?$default_delete@V?$basic_node@Umap_node_info@map@kmint@@@graph@kmint@@@std@@@std@@@std@@QAE@XZ
	??0?$allocator@V?$unique_ptr@V?$basic_node@Uno_node_info@graph@kmint@@@graph@kmint@@U?$default_delete@V?$basic_node@Uno_node_info@graph@kmint@@@graph@kmint@@@std@@@std@@@std@@QAE@XZ
	??0?$back_insert_iterator@V?$vector@DV?$allocator@D@std@@@std@@@std@@QAE@AAV?$vector@DV?$allocator@D@std@@@1@@Z
	??0?$basic_edge@Umap_node_info@map@kmint@@@graph@kmint@@QAE@ABV?$basic_node@Umap_node_info@map@kmint@@@12@0M@Z
	??0?$basic_edge@Uno_node_info@graph@kmint@@@graph@kmint@@QAE@ABV?$basic_node@Uno_node_info@graph@kmint@@@12@0M@Z
	??0?$basic_graph@Umap_node_info@map@kmint@@@graph@kmint@@QAE@$$QAV012@@Z
	??0?$basic_graph@Umap_node_info@map@kmint@@@graph@kmint@@QAE@XZ
	??0?$basic_graph@Uno_node_info@graph@kmint@@@graph@kmint@@QAE@$$QAV012@@Z
	??0?$basic_graph@Uno_node_info@graph@kmint@@@graph@kmint@@QAE@XZ
	??0?$basic_istringstream@DU?$char_traits@D@std@@V?$allocator@D@2@@std@@QAE@ABV?$basic_string@DU?$char_traits@D@std@@V?$allocator@D@2@@1@H@Z
	??0?$basic_node@Umap_node_info@map@kmint@@@graph@kmint@@AAE@IV?$basic_vector2d@M@math@2@$$QAUmap_node_info@map@2@@Z
	??0?$basic_node@Uno_node_info@graph@kmint@@@graph@kmint@@AAE@IV?$basic_vector2d@M@math@2@ABUno_node_info@12@@Z
	??0?$basic_size@H@math@kmint@@QAE@HH@Z
	??0?$basic_size@H@math@kmint@@QAE@XZ
	??0?$basic_string@DU?$char_traits@D@std@@V?$allocator@D@2@@std@@QAE@$$QAV01@@Z
	??0?$basic_string@DU?$char_traits@D@std@@V?$allocator@D@2@@std@@QAE@ABV01@@Z
	??0?$basic_string@DU?$char_traits@D@std@@V?$allocator@D@2@@std@@QAE@QBD@Z
	??0?$basic_string@DU?$char_traits@D@std@@V?$allocator@D@2@@std@@QAE@XZ
	??0?$basic_stringbuf@DU?$char_traits@D@std@@V?$allocator@D@2@@std@@QAE@ABV?$basic_string@DU?$char_traits@D@std@@V?$allocator@D@2@@1@H@Z
	??0?$basic_vector2d@M@math@kmint@@QAE@MM@Z
	??0?$basic_vector2d@M@math@kmint@@QAE@XZ
	??0?$fpos@U_Mbstatet@@@std@@QAE@_J@Z
	??0?$function@$$A6AAAVactor@play@kmint@@AAV?$unique_ptr@Vactor@play@kmint@@U?$default_delete@Vactor@play@kmint@@@std@@@std@@@Z@std@@QAE@$$QAV01@@Z
	??0?$function@$$A6AAAVactor@play@kmint@@AAV?$unique_ptr@Vactor@play@kmint@@U?$default_delete@Vactor@play@kmint@@@std@@@std@@@Z@std@@QAE@ABV01@@Z
	??0?$function@$$A6AABVactor@play@kmint@@ABV?$unique_ptr@Vactor@play@kmint@@U?$default_delete@Vactor@play@kmint@@@std@@@std@@@Z@std@@QAE@$$QAV01@@Z
	??0?$istream_iterator@DDU?$char_traits@D@std@@H@std@@QAE@AAV?$basic_istream@DU?$char_traits@D@std@@@1@@Z
	??0?$istream_iterator@DDU?$char_traits@D@std@@H@std@@QAE@XZ
	??0?$map@DUtile_info@0kmint@@U?$less@D@std@@V?$allocator@U?$pair@$$CBDUtile_info@map@kmint@@@std@@@4@@std@@QAE@ABV01@@Z
	??0?$map@DUtile_info@0kmint@@U?$less@D@std@@V?$allocator@U?$pair@$$CBDUtile_info@map@kmint@@@std@@@4@@std@@QAE@XZ
	??0?$map@V?$basic_string@DU?$char_traits@D@std@@V?$allocator@D@2@@std@@Vtexture@sdl@ui@kmint@@U?$less@V?$basic_string@DU?$char_traits@D@std@@V?$allocator@D@2@@std@@@2@V?$allocator@U?$pair@$$CBV?$basic_string@DU?$char_traits@D@std@@V?$allocator@D@2@@std@@Vtexture@sdl@ui@kmint@@@std@@@2@@std@@QAE@XZ
	??0?$mersenne_twister@I$0CA@$0CHA@$0BIN@$0BP@$0JJAILANP@$0L@$06$0JNCMFGIA@$0P@$0OPMGAAAA@$0BC@@std@@QAE@III@Z
	??0?$mersenne_twister_engine@I$0CA@$0CHA@$0BIN@$0BP@$0JJAILANP@$0L@$0PPPPPPPP@$06$0JNCMFGIA@$0P@$0OPMGAAAA@$0BC@$0GMAHIJGF@@std@@QAE@I@Z
	??0?$uniform_int@H@std@@QAE@HH@Z
	??0?$uniform_int_distribution@H@std@@QAE@HH@Z
	??0?$uniform_real@M@std@@QAE@MM@Z
	??0?$uniform_real_distribution@M@std@@QAE@MM@Z
	??0?$unique_ptr@USDL_Texture@@V?$destroyer@USDL_Texture@@@sdl@ui@kmint@@@std@@QAE@$$QAV01@@Z
	??0?$unique_ptr@Uimpl@frame@ui@kmint@@U?$default_delete@Uimpl@frame@ui@kmint@@@std@@@std@@QAE@$$QAV01@@Z
	??0?$unique_ptr@V?$basic_edge@Umap_node_info@map@kmint@@@graph@kmint@@U?$default_delete@V?$basic_edge@Umap_node_info@map@kmint@@@graph@kmint@@@std@@@std@@QAE@$$QAV01@@Z
	??0?$unique_ptr@V?$basic_edge@Uno_node_info@graph@kmint@@@graph@kmint@@U?$default_delete@V?$basic_edge@Uno_node_info@graph@kmint@@@graph@kmint@@@std@@@std@@QAE@$$QAV01@@Z
	??0?$unique_ptr@V?$basic_node@Umap_node_info@map@kmint@@@graph@kmint@@U?$default_delete@V?$basic_node@Umap_node_info@map@kmint@@@graph@kmint@@@std@@@std@@QAE@$$QAV01@@Z
	??0?$unique_ptr@V?$basic_node@Uno_node_info@graph@kmint@@@graph@kmint@@U?$default_delete@V?$basic_node@Uno_node_info@graph@kmint@@@graph@kmint@@@std@@@std@@QAE@$$QAV01@@Z
	??0?$unique_ptr@Vimpl@app@ui@kmint@@U?$default_delete@Vimpl@app@ui@kmint@@@std@@@std@@QAE@$$QAV01@@Z
	??0?$unique_ptr@Vimpl@window@ui@kmint@@U?$default_delete@Vimpl@window@ui@kmint@@@std@@@std@@QAE@$$QAV01@@Z
	??0?$vector@DV?$allocator@D@std@@@std@@QAE@ABV01@@Z
	??0?$vector@DV?$allocator@D@std@@@std@@QAE@XZ
	??0?$vector@HV?$allocator@H@std@@@std@@QAE@IABHABV?$allocator@H@1@@Z
	??0?$vector@V?$unique_ptr@V?$basic_edge@Umap_node_info@map@kmint@@@graph@kmint@@U?$default_delete@V?$basic_edge@Umap_node_info@map@kmint@@@graph@kmint@@@std@@@std@@V?$allocator@V?$unique_ptr@V?$basic_edge@Umap_node_info@map@kmint@@@graph@kmint@@U?$default_delete@V?$basic_edge@Umap_node_info@map@kmint@@@graph@kmint@@@std@@@std@@@2@@std@@QAE@XZ
	??0?$vector@V?$unique_ptr@V?$basic_edge@Uno_node_info@graph@kmint@@@graph@kmint@@U?$default_delete@V?$basic_edge@Uno_node_info@graph@kmint@@@graph@kmint@@@std@@@std@@V?$allocator@V?$unique_ptr@V?$basic_edge@Uno_node_info@graph@kmint@@@graph@kmint@@U?$default_delete@V?$basic_edge@Uno_node_info@graph@kmint@@@graph@kmint@@@std@@@std@@@2@@std@@QAE@XZ
	??0?$vector@V?$unique_ptr@V?$basic_node@Umap_node_info@map@kmint@@@graph@kmint@@U?$default_delete@V?$basic_node@Umap_node_info@map@kmint@@@graph@kmint@@@std@@@std@@V?$allocator@V?$unique_ptr@V?$basic_node@Umap_node_info@map@kmint@@@graph@kmint@@U?$default_delete@V?$basic_node@Umap_node_info@map@kmint@@@graph@kmint@@@std@@@std@@@2@@std@@QAE@$$QAV01@@Z
	??0?$vector@V?$unique_ptr@V?$basic_node@Umap_node_info@map@kmint@@@graph@kmint@@U?$default_delete@V?$basic_node@Umap_node_info@map@kmint@@@graph@kmint@@@std@@@std@@V?$allocator@V?$unique_ptr@V?$basic_node@Umap_node_info@map@kmint@@@graph@kmint@@U?$default_delete@V?$basic_node@Umap_node_info@map@kmint@@@graph@kmint@@@std@@@std@@@2@@std@@QAE@XZ
	??0?$vector@V?$unique_ptr@V?$basic_node@Uno_node_info@graph@kmint@@@graph@kmint@@U?$default_delete@V?$basic_node@Uno_node_info@graph@kmint@@@graph@kmint@@@std@@@std@@V?$allocator@V?$unique_ptr@V?$basic_node@Uno_node_info@graph@kmint@@@graph@kmint@@U?$default_delete@V?$basic_node@Uno_node_info@graph@kmint@@@graph@kmint@@@std@@@std@@@2@@std@@QAE@$$QAV01@@Z
	??0?$vector@V?$unique_ptr@V?$basic_node@Uno_node_info@graph@kmint@@@graph@kmint@@U?$default_delete@V?$basic_node@Uno_node_info@graph@kmint@@@graph@kmint@@@std@@@std@@V?$allocator@V?$unique_ptr@V?$basic_node@Uno_node_info@graph@kmint@@@graph@kmint@@U?$default_delete@V?$basic_node@Uno_node_info@graph@kmint@@@graph@kmint@@@std@@@std@@@2@@std@@QAE@XZ
	??0?$wrapped_iterator@$$CBVactor@play@kmint@@V?$_Vector_const_iterator@V?$_Vector_val@U?$_Simple_types@V?$unique_ptr@Vactor@play@kmint@@U?$default_delete@Vactor@play@kmint@@@std@@@std@@@std@@@std@@@std@@@util@kmint@@QAE@V?$_Vector_const_iterator@V?$_Vector_val@U?$_Simple_types@V?$unique_ptr@Vactor@play@kmint@@U?$default_delete@Vactor@play@kmint@@@std@@@std@@@std@@@std@@@std@@V?$function@$$A6AABVactor@play@kmint@@ABV?$unique_ptr@Vactor@play@kmint@@U?$default_delete@Vactor@play@kmint@@@std@@@std@@@Z@4@@Z
	??0?$wrapped_iterator@Vactor@play@kmint@@V?$_Vector_iterator@V?$_Vector_val@U?$_Simple_types@V?$unique_ptr@Vactor@play@kmint@@U?$default_delete@Vactor@play@kmint@@@std@@@std@@@std@@@std@@@std@@@util@kmint@@QAE@ABV012@@Z
	??0?$wrapped_iterator@Vactor@play@kmint@@V?$_Vector_iterator@V?$_Vector_val@U?$_Simple_types@V?$unique_ptr@Vactor@play@kmint@@U?$default_delete@Vactor@play@kmint@@@std@@@std@@@std@@@std@@@std@@@util@kmint@@QAE@V?$_Vector_iterator@V?$_Vector_val@U?$_Simple_types@V?$unique_ptr@Vactor@play@kmint@@U?$default_delete@Vactor@play@kmint@@@std@@@std@@@std@@@std@@@std@@V?$function@$$A6AAAVactor@play@kmint@@AAV?$unique_ptr@Vactor@play@kmint@@U?$default_delete@Vactor@play@kmint@@@std@@@std@@@Z@4@@Z
	??0_Bxty@?$_String_val@U?$_Simple_types@D@std@@@std@@QAE@XZ
	??0_Container_base12@std@@QAE@XZ
	??0_Container_proxy@std@@QAE@XZ
	??0_Iterator_base12@std@@QAE@ABU01@@Z
	??0_Iterator_base12@std@@QAE@XZ
	??0_Sentry_base@?$basic_istream@DU?$char_traits@D@std@@@std@@QAE@AAV12@@Z
	??0angle@math@kmint@@AAE@M@Z
	??0app@ui@kmint@@QAE@$$QAV012@@Z
	??0app@ui@kmint@@QAE@XZ
	??0bad_cast@std@@QAE@ABV01@@Z
	??0bad_cast@std@@QAE@XZ
	??0color@graphics@kmint@@QAE@EEEE@Z
	??0event@events@ui@kmint@@QAE@Ukey_down_event@123@@Z
	??0event@events@ui@kmint@@QAE@Ukey_up_event@123@@Z
	??0event@events@ui@kmint@@QAE@Uquit_event@123@@Z
	??0event@events@ui@kmint@@QAE@XZ
	??0exception@std@@QAE@ABV01@@Z
	??0exception@std@@QAE@QBD@Z
	??0exception@std@@QAE@QBDH@Z
	??0frame@ui@kmint@@AAE@AAVwindow@12@@Z
	??0frame@ui@kmint@@QAE@$$QAV012@@Z
	??0impl@app@ui@kmint@@QAE@XZ
	??0impl@window@ui@kmint@@QAE@V?$basic_size@H@math@3@PBDM@Z
	??0initialization_error@ui@kmint@@QAE@ABV012@@Z
	??0initialization_error@ui@kmint@@QAE@ABV?$basic_string@DU?$char_traits@D@std@@V?$allocator@D@2@@std@@@Z
	??0initialization_error@ui@kmint@@QAE@PBD@Z
	??0internal_map@map@kmint@@QAE@Vmap_info@12@ABV?$vector@DV?$allocator@D@std@@@std@@@Z
	??0map@0kmint@@QAE@$$QAV?$basic_graph@Umap_node_info@map@kmint@@@graph@1@V?$basic_size@H@math@1@V?$basic_string@DU?$char_traits@D@std@@V?$allocator@D@2@@std@@@Z
	??0map_header@map@kmint@@QAE@$$QAU012@@Z
	??0map_header@map@kmint@@QAE@ABU012@@Z
	??0map_header@map@kmint@@QAE@XZ
	??0map_info@map@kmint@@QAE@ABV012@@Z
	??0map_info@map@kmint@@QAE@Umap_header@12@@Z
	??0param_type@?$uniform_int@H@std@@QAE@HH@Z
	??0param_type@?$uniform_real@M@std@@QAE@MM@Z
	??0random_device@std@@QAE@XZ
	??0renderer@ui@kmint@@QAE@PAUSDL_Window@@M@Z
	??0runtime_error@std@@QAE@ABV01@@Z
	??0runtime_error@std@@QAE@ABV?$basic_string@DU?$char_traits@D@std@@V?$allocator@D@2@@1@@Z
	??0runtime_error@std@@QAE@PBD@Z
	??0sentry@?$basic_istream@DU?$char_traits@D@std@@@std@@QAE@AAV12@_N@Z
	??0surface@sdl@ui@kmint@@QAE@ABV?$basic_string@DU?$char_traits@D@std@@V?$allocator@D@2@@std@@@Z
	??0texture@sdl@ui@kmint@@QAE@$$QAV0123@@Z
	??0texture@sdl@ui@kmint@@QAE@ABVsurface@123@PAUSDL_Renderer@@@Z
	??0window@ui@kmint@@AAE@V?$basic_size@H@math@2@PBDM@Z
	??0window@ui@kmint@@QAE@$$QAV012@@Z
	??1?$_Compressed_pair@V?$allocator@D@std@@V?$_String_val@U?$_Simple_types@D@std@@@2@$00@std@@QAE@XZ
	??1?$_Func_class@AAVactor@play@kmint@@AAV?$unique_ptr@Vactor@play@kmint@@U?$default_delete@Vactor@play@kmint@@@std@@@std@@@std@@QAE@XZ
	??1?$_Func_class@ABVactor@play@kmint@@ABV?$unique_ptr@Vactor@play@kmint@@U?$default_delete@Vactor@play@kmint@@@std@@@std@@@std@@QAE@XZ
	??1?$_String_alloc@U?$_String_base_types@DV?$allocator@D@std@@@std@@@std@@QAE@XZ
	??1?$_String_val@U?$_Simple_types@D@std@@@std@@QAE@XZ
	??1?$_Tree@V?$_Tmap_traits@DUtile_info@map@kmint@@U?$less@D@std@@V?$allocator@U?$pair@$$CBDUtile_info@map@kmint@@@std@@@5@$0A@@std@@@std@@QAE@XZ
	??1?$_Tree@V?$_Tmap_traits@V?$basic_string@DU?$char_traits@D@std@@V?$allocator@D@2@@std@@Vtexture@sdl@ui@kmint@@U?$less@V?$basic_string@DU?$char_traits@D@std@@V?$allocator@D@2@@std@@@2@V?$allocator@U?$pair@$$CBV?$basic_string@DU?$char_traits@D@std@@V?$allocator@D@2@@std@@Vtexture@sdl@ui@kmint@@@std@@@2@$0A@@std@@@std@@QAE@XZ
	??1?$_Tree_comp_alloc@V?$_Tmap_traits@DUtile_info@map@kmint@@U?$less@D@std@@V?$allocator@U?$pair@$$CBDUtile_info@map@kmint@@@std@@@5@$0A@@std@@@std@@QAE@XZ
	??1?$_Tree_comp_alloc@V?$_Tmap_traits@V?$basic_string@DU?$char_traits@D@std@@V?$allocator@D@2@@std@@Vtexture@sdl@ui@kmint@@U?$less@V?$basic_string@DU?$char_traits@D@std@@V?$allocator@D@2@@std@@@2@V?$allocator@U?$pair@$$CBV?$basic_string@DU?$char_traits@D@std@@V?$allocator@D@2@@std@@Vtexture@sdl@ui@kmint@@@std@@@2@$0A@@std@@@std@@QAE@XZ
	??1?$_Tree_const_iterator@V?$_Tree_val@U?$_Tree_simple_types@U?$pair@$$CBDUtile_info@map@kmint@@@std@@@std@@@std@@@std@@QAE@XZ
	??1?$_Tree_const_iterator@V?$_Tree_val@U?$_Tree_simple_types@U?$pair@$$CBV?$basic_string@DU?$char_traits@D@std@@V?$allocator@D@2@@std@@Vtexture@sdl@ui@kmint@@@std@@@std@@@std@@@std@@QAE@XZ
	??1?$_Tree_iterator@V?$_Tree_val@U?$_Tree_simple_types@U?$pair@$$CBDUtile_info@map@kmint@@@std@@@std@@@std@@@std@@QAE@XZ
	??1?$_Tree_iterator@V?$_Tree_val@U?$_Tree_simple_types@U?$pair@$$CBV?$basic_string@DU?$char_traits@D@std@@V?$allocator@D@2@@std@@Vtexture@sdl@ui@kmint@@@std@@@std@@@std@@@std@@QAE@XZ
	??1?$_Tree_unchecked_const_iterator@V?$_Tree_val@U?$_Tree_simple_types@U?$pair@$$CBDUtile_info@map@kmint@@@std@@@std@@@std@@U_Iterator_base12@2@@std@@QAE@XZ
	??1?$_Tree_unchecked_const_iterator@V?$_Tree_val@U?$_Tree_simple_types@U?$pair@$$CBV?$basic_string@DU?$char_traits@D@std@@V?$allocator@D@2@@std@@Vtexture@sdl@ui@kmint@@@std@@@std@@@std@@U_Iterator_base12@2@@std@@QAE@XZ
	??1?$_Uninitialized_backout_al@PAHV?$allocator@H@std@@@std@@QAE@XZ
	??1?$_Uninitialized_backout_al@PAV?$unique_ptr@V?$basic_edge@Umap_node_info@map@kmint@@@graph@kmint@@U?$default_delete@V?$basic_edge@Umap_node_info@map@kmint@@@graph@kmint@@@std@@@std@@V?$allocator@V?$unique_ptr@V?$basic_edge@Umap_node_info@map@kmint@@@graph@kmint@@U?$default_delete@V?$basic_edge@Umap_node_info@map@kmint@@@graph@kmint@@@std@@@std@@@2@@std@@QAE@XZ
	??1?$_Uninitialized_backout_al@PAV?$unique_ptr@V?$basic_edge@Uno_node_info@graph@kmint@@@graph@kmint@@U?$default_delete@V?$basic_edge@Uno_node_info@graph@kmint@@@graph@kmint@@@std@@@std@@V?$allocator@V?$unique_ptr@V?$basic_edge@Uno_node_info@graph@kmint@@@graph@kmint@@U?$default_delete@V?$basic_edge@Uno_node_info@graph@kmint@@@graph@kmint@@@std@@@std@@@2@@std@@QAE@XZ
	??1?$_Uninitialized_backout_al@PAV?$unique_ptr@V?$basic_node@Umap_node_info@map@kmint@@@graph@kmint@@U?$default_delete@V?$basic_node@Umap_node_info@map@kmint@@@graph@kmint@@@std@@@std@@V?$allocator@V?$unique_ptr@V?$basic_node@Umap_node_info@map@kmint@@@graph@kmint@@U?$default_delete@V?$basic_node@Umap_node_info@map@kmint@@@graph@kmint@@@std@@@std@@@2@@std@@QAE@XZ
	??1?$_Uninitialized_backout_al@PAV?$unique_ptr@V?$basic_node@Uno_node_info@graph@kmint@@@graph@kmint@@U?$default_delete@V?$basic_node@Uno_node_info@graph@kmint@@@graph@kmint@@@std@@@std@@V?$allocator@V?$unique_ptr@V?$basic_node@Uno_node_info@graph@kmint@@@graph@kmint@@U?$default_delete@V?$basic_node@Uno_node_info@graph@kmint@@@graph@kmint@@@std@@@std@@@2@@std@@QAE@XZ
	??1?$_Vector_alloc@U?$_Vec_base_types@DV?$allocator@D@std@@@std@@@std@@QAE@XZ
	??1?$_Vector_alloc@U?$_Vec_base_types@HV?$allocator@H@std@@@std@@@std@@QAE@XZ
	??1?$_Vector_alloc@U?$_Vec_base_types@V?$unique_ptr@V?$basic_edge@Umap_node_info@map@kmint@@@graph@kmint@@U?$default_delete@V?$basic_edge@Umap_node_info@map@kmint@@@graph@kmint@@@std@@@std@@V?$allocator@V?$unique_ptr@V?$basic_edge@Umap_node_info@map@kmint@@@graph@kmint@@U?$default_delete@V?$basic_edge@Umap_node_info@map@kmint@@@graph@kmint@@@std@@@std@@@2@@std@@@std@@QAE@XZ
	??1?$_Vector_alloc@U?$_Vec_base_types@V?$unique_ptr@V?$basic_edge@Uno_node_info@graph@kmint@@@graph@kmint@@U?$default_delete@V?$basic_edge@Uno_node_info@graph@kmint@@@graph@kmint@@@std@@@std@@V?$allocator@V?$unique_ptr@V?$basic_edge@Uno_node_info@graph@kmint@@@graph@kmint@@U?$default_delete@V?$basic_edge@Uno_node_info@graph@kmint@@@graph@kmint@@@std@@@std@@@2@@std@@@std@@QAE@XZ
	??1?$_Vector_alloc@U?$_Vec_base_types@V?$unique_ptr@V?$basic_node@Umap_node_info@map@kmint@@@graph@kmint@@U?$default_delete@V?$basic_node@Umap_node_info@map@kmint@@@graph@kmint@@@std@@@std@@V?$allocator@V?$unique_ptr@V?$basic_node@Umap_node_info@map@kmint@@@graph@kmint@@U?$default_delete@V?$basic_node@Umap_node_info@map@kmint@@@graph@kmint@@@std@@@std@@@2@@std@@@std@@QAE@XZ
	??1?$_Vector_alloc@U?$_Vec_base_types@V?$unique_ptr@V?$basic_node@Uno_node_info@graph@kmint@@@graph@kmint@@U?$default_delete@V?$basic_node@Uno_node_info@graph@kmint@@@graph@kmint@@@std@@@std@@V?$allocator@V?$unique_ptr@V?$basic_node@Uno_node_info@graph@kmint@@@graph@kmint@@U?$default_delete@V?$basic_node@Uno_node_info@graph@kmint@@@graph@kmint@@@std@@@std@@@2@@std@@@std@@QAE@XZ
	??1?$_Vector_const_iterator@V?$_Vector_val@U?$_Simple_types@V?$unique_ptr@Vactor@play@kmint@@U?$default_delete@Vactor@play@kmint@@@std@@@std@@@std@@@std@@@std@@QAE@XZ
	??1?$_Vector_iterator@V?$_Vector_val@U?$_Simple_types@V?$unique_ptr@Vactor@play@kmint@@U?$default_delete@Vactor@play@kmint@@@std@@@std@@@std@@@std@@@std@@QAE@XZ
	??1?$basic_graph@Umap_node_info@map@kmint@@@graph@kmint@@QAE@XZ
	??1?$basic_graph@Uno_node_info@graph@kmint@@@graph@kmint@@QAE@XZ
	??1?$basic_istringstream@DU?$char_traits@D@std@@V?$allocator@D@2@@std@@UAE@XZ
	??1?$basic_node@Umap_node_info@map@kmint@@@graph@kmint@@QAE@XZ
	??1?$basic_node@Uno_node_info@graph@kmint@@@graph@kmint@@QAE@XZ
	??1?$basic_string@DU?$char_traits@D@std@@V?$allocator@D@2@@std@@QAE@XZ
	??1?$basic_stringbuf@DU?$char_traits@D@std@@V?$allocator@D@2@@std@@UAE@XZ
	??1?$function@$$A6AAAVactor@play@kmint@@AAV?$unique_ptr@Vactor@play@kmint@@U?$default_delete@Vactor@play@kmint@@@std@@@std@@@Z@std@@QAE@XZ
	??1?$function@$$A6AABVactor@play@kmint@@ABV?$unique_ptr@Vactor@play@kmint@@U?$default_delete@Vactor@play@kmint@@@std@@@std@@@Z@std@@QAE@XZ
	??1?$map@DUtile_info@0kmint@@U?$less@D@std@@V?$allocator@U?$pair@$$CBDUtile_info@map@kmint@@@std@@@4@@std@@QAE@XZ
	??1?$map@V?$basic_string@DU?$char_traits@D@std@@V?$allocator@D@2@@std@@Vtexture@sdl@ui@kmint@@U?$less@V?$basic_string@DU?$char_traits@D@std@@V?$allocator@D@2@@std@@@2@V?$allocator@U?$pair@$$CBV?$basic_string@DU?$char_traits@D@std@@V?$allocator@D@2@@std@@Vtexture@sdl@ui@kmint@@@std@@@2@@std@@QAE@XZ
	??1?$pair@$$CBV?$basic_string@DU?$char_traits@D@std@@V?$allocator@D@2@@std@@Vtexture@sdl@ui@kmint@@@std@@QAE@XZ
	??1?$pair@V?$_Tree_iterator@V?$_Tree_val@U?$_Tree_simple_types@U?$pair@$$CBDUtile_info@map@kmint@@@std@@@std@@@std@@@std@@_N@std@@QAE@XZ
	??1?$pair@V?$_Tree_iterator@V?$_Tree_val@U?$_Tree_simple_types@U?$pair@$$CBV?$basic_string@DU?$char_traits@D@std@@V?$allocator@D@2@@std@@Vtexture@sdl@ui@kmint@@@std@@@std@@@std@@@std@@_N@std@@QAE@XZ
	??1?$pair@V?$basic_string@DU?$char_traits@D@std@@V?$allocator@D@2@@std@@Vtexture@sdl@ui@kmint@@@std@@QAE@XZ
	??1?$unique_ptr@USDL_Renderer@@V?$destroyer@USDL_Renderer@@@sdl@ui@kmint@@@std@@QAE@XZ
	??1?$unique_ptr@USDL_Surface@@V?$destroyer@USDL_Surface@@@sdl@ui@kmint@@@std@@QAE@XZ
	??1?$unique_ptr@USDL_Texture@@V?$destroyer@USDL_Texture@@@sdl@ui@kmint@@@std@@QAE@XZ
	??1?$unique_ptr@USDL_Window@@V?$destroyer@USDL_Window@@@sdl@ui@kmint@@@std@@QAE@XZ
	??1?$unique_ptr@Uimpl@frame@ui@kmint@@U?$default_delete@Uimpl@frame@ui@kmint@@@std@@@std@@QAE@XZ
	??1?$unique_ptr@V?$basic_edge@Umap_node_info@map@kmint@@@graph@kmint@@U?$default_delete@V?$basic_edge@Umap_node_info@map@kmint@@@graph@kmint@@@std@@@std@@QAE@XZ
	??1?$unique_ptr@V?$basic_edge@Uno_node_info@graph@kmint@@@graph@kmint@@U?$default_delete@V?$basic_edge@Uno_node_info@graph@kmint@@@graph@kmint@@@std@@@std@@QAE@XZ
	??1?$unique_ptr@V?$basic_node@Umap_node_info@map@kmint@@@graph@kmint@@U?$default_delete@V?$basic_node@Umap_node_info@map@kmint@@@graph@kmint@@@std@@@std@@QAE@XZ
	??1?$unique_ptr@V?$basic_node@Uno_node_info@graph@kmint@@@graph@kmint@@U?$default_delete@V?$basic_node@Uno_node_info@graph@kmint@@@graph@kmint@@@std@@@std@@QAE@XZ
	??1?$unique_ptr@V_Facet_base@std@@U?$default_delete@V_Facet_base@std@@@2@@std@@QAE@XZ
	??1?$unique_ptr@Vactor@play@kmint@@U?$default_delete@Vactor@play@kmint@@@std@@@std@@QAE@XZ
	??1?$unique_ptr@Vimpl@app@ui@kmint@@U?$default_delete@Vimpl@app@ui@kmint@@@std@@@std@@QAE@XZ
	??1?$unique_ptr@Vimpl@window@ui@kmint@@U?$default_delete@Vimpl@window@ui@kmint@@@std@@@std@@QAE@XZ
	??1?$vector@DV?$allocator@D@std@@@std@@QAE@XZ
	??1?$vector@HV?$allocator@H@std@@@std@@QAE@XZ
	??1?$vector@V?$unique_ptr@V?$basic_edge@Umap_node_info@map@kmint@@@graph@kmint@@U?$default_delete@V?$basic_edge@Umap_node_info@map@kmint@@@graph@kmint@@@std@@@std@@V?$allocator@V?$unique_ptr@V?$basic_edge@Umap_node_info@map@kmint@@@graph@kmint@@U?$default_delete@V?$basic_edge@Umap_node_info@map@kmint@@@graph@kmint@@@std@@@std@@@2@@std@@QAE@XZ
	??1?$vector@V?$unique_ptr@V?$basic_edge@Uno_node_info@graph@kmint@@@graph@kmint@@U?$default_delete@V?$basic_edge@Uno_node_info@graph@kmint@@@graph@kmint@@@std@@@std@@V?$allocator@V?$unique_ptr@V?$basic_edge@Uno_node_info@graph@kmint@@@graph@kmint@@U?$default_delete@V?$basic_edge@Uno_node_info@graph@kmint@@@graph@kmint@@@std@@@std@@@2@@std@@QAE@XZ
	??1?$vector@V?$unique_ptr@V?$basic_node@Umap_node_info@map@kmint@@@graph@kmint@@U?$default_delete@V?$basic_node@Umap_node_info@map@kmint@@@graph@kmint@@@std@@@std@@V?$allocator@V?$unique_ptr@V?$basic_node@Umap_node_info@map@kmint@@@graph@kmint@@U?$default_delete@V?$basic_node@Umap_node_info@map@kmint@@@graph@kmint@@@std@@@std@@@2@@std@@QAE@XZ
	??1?$vector@V?$unique_ptr@V?$basic_node@Uno_node_info@graph@kmint@@@graph@kmint@@U?$default_delete@V?$basic_node@Uno_node_info@graph@kmint@@@graph@kmint@@@std@@@std@@V?$allocator@V?$unique_ptr@V?$basic_node@Uno_node_info@graph@kmint@@@graph@kmint@@U?$default_delete@V?$basic_node@Uno_node_info@graph@kmint@@@graph@kmint@@@std@@@std@@@2@@std@@QAE@XZ
	??1?$wrapped_iterator@Vactor@play@kmint@@V?$_Vector_iterator@V?$_Vector_val@U?$_Simple_types@V?$unique_ptr@Vactor@play@kmint@@U?$default_delete@Vactor@play@kmint@@@std@@@std@@@std@@@std@@@std@@@util@kmint@@QAE@XZ
	??1_Bxty@?$_String_val@U?$_Simple_types@D@std@@@std@@QAE@XZ
	??1_Iterator_base12@std@@QAE@XZ
	??1_Sentry_base@?$basic_istream@DU?$char_traits@D@std@@@std@@QAE@XZ
	??1app@ui@kmint@@QAE@XZ
	??1bad_cast@std@@UAE@XZ
	??1exception@std@@UAE@XZ
	??1frame@ui@kmint@@QAE@XZ
	??1impl@app@ui@kmint@@QAE@XZ
	??1impl@window@ui@kmint@@QAE@XZ
	??1initialization_error@ui@kmint@@UAE@XZ
	??1internal_map@map@kmint@@QAE@XZ
	??1locale@std@@QAE@XZ
	??1map_header@map@kmint@@QAE@XZ
	??1map_info@map@kmint@@QAE@XZ
	??1renderer@ui@kmint@@QAE@XZ
	??1runtime_error@std@@UAE@XZ
	??1sentry@?$basic_istream@DU?$char_traits@D@std@@@std@@QAE@XZ
	??1surface@sdl@ui@kmint@@QAE@XZ
	??1texture@sdl@ui@kmint@@QAE@XZ
	??1window@ui@kmint@@QAE@XZ
	??2@YAPAXIPAX@Z
	??4?$back_insert_iterator@V?$vector@DV?$allocator@D@std@@@std@@@std@@QAEAAV01@ABD@Z
	??4?$basic_string@DU?$char_traits@D@std@@V?$allocator@D@2@@std@@QAEAAV01@$$QAV01@@Z
	??4?$unique_ptr@Uimpl@frame@ui@kmint@@U?$default_delete@Uimpl@frame@ui@kmint@@@std@@@std@@QAEAAV01@$$QAV01@@Z
	??4?$unique_ptr@Vactor@play@kmint@@U?$default_delete@Vactor@play@kmint@@@std@@@std@@QAEAAV01@$$QAV01@@Z
	??4?$unique_ptr@Vimpl@app@ui@kmint@@U?$default_delete@Vimpl@app@ui@kmint@@@std@@@std@@QAEAAV01@$$QAV01@@Z
	??4?$unique_ptr@Vimpl@window@ui@kmint@@U?$default_delete@Vimpl@window@ui@kmint@@@std@@@std@@QAEAAV01@$$QAV01@@Z
	??4_Iterator_base12@std@@QAEAAU01@ABU01@@Z
	??4app@ui@kmint@@QAEAAV012@$$QAV012@@Z
	??4frame@ui@kmint@@QAEAAV012@$$QAV012@@Z
	??4window@ui@kmint@@QAEAAV012@$$QAV012@@Z
	??5graph@kmint@@YAAAV?$basic_istream@DU?$char_traits@D@std@@@std@@AAV23@AAUno_node_info@01@@Z
	??5map@kmint@@YAAAV?$basic_istream@DU?$char_traits@D@std@@@std@@AAV23@AAUmap_header@01@@Z
	??5map@kmint@@YAAAV?$basic_istream@DU?$char_traits@D@std@@@std@@AAV23@AAUtile_info@01@@Z
	??6graph@kmint@@YAAAV?$basic_ostream@DU?$char_traits@D@std@@@std@@AAV23@Uno_node_info@01@@Z
	??8?$_Tree_const_iterator@V?$_Tree_val@U?$_Tree_simple_types@U?$pair@$$CBDUtile_info@map@kmint@@@std@@@std@@@std@@@std@@QBE_NABV01@@Z
	??8?$_Tree_const_iterator@V?$_Tree_val@U?$_Tree_simple_types@U?$pair@$$CBV?$basic_string@DU?$char_traits@D@std@@V?$allocator@D@2@@std@@Vtexture@sdl@ui@kmint@@@std@@@std@@@std@@@std@@QBE_NABV01@@Z
	??8?$_Vector_const_iterator@V?$_Vector_val@U?$_Simple_types@V?$unique_ptr@Vactor@play@kmint@@U?$default_delete@Vactor@play@kmint@@@std@@@std@@@std@@@std@@@std@@QBE_NABV01@@Z
	??8?$wrapped_iterator@Vactor@play@kmint@@V?$_Vector_iterator@V?$_Vector_val@U?$_Simple_types@V?$unique_ptr@Vactor@play@kmint@@U?$default_delete@Vactor@play@kmint@@@std@@@std@@@std@@@std@@@std@@@util@kmint@@QBE_NV012@@Z
	??9?$_Tree_const_iterator@V?$_Tree_val@U?$_Tree_simple_types@U?$pair@$$CBDUtile_info@map@kmint@@@std@@@std@@@std@@@std@@QBE_NABV01@@Z
	??9?$_Tree_const_iterator@V?$_Tree_val@U?$_Tree_simple_types@U?$pair@$$CBV?$basic_string@DU?$char_traits@D@std@@V?$allocator@D@2@@std@@Vtexture@sdl@ui@kmint@@@std@@@std@@@std@@@std@@QBE_NABV01@@Z
	??9?$_Vector_const_iterator@V?$_Vector_val@U?$_Simple_types@V?$unique_ptr@Vactor@play@kmint@@U?$default_delete@Vactor@play@kmint@@@std@@@std@@@std@@@std@@@std@@QBE_NABV01@@Z
	??9?$wrapped_iterator@Vactor@play@kmint@@V?$_Vector_iterator@V?$_Vector_val@U?$_Simple_types@V?$unique_ptr@Vactor@play@kmint@@U?$default_delete@Vactor@play@kmint@@@std@@@std@@@std@@@std@@@std@@@util@kmint@@QBE_NV012@@Z
	??A?$basic_graph@Umap_node_info@map@kmint@@@graph@kmint@@QAEAAV?$basic_node@Umap_node_info@map@kmint@@@12@I@Z
	??A?$basic_graph@Uno_node_info@graph@kmint@@@graph@kmint@@QAEAAV?$basic_node@Uno_node_info@graph@kmint@@@12@I@Z
	??A?$vector@DV?$allocator@D@std@@@std@@QAEAADI@Z
	??A?$vector@HV?$allocator@H@std@@@std@@QAEAAHI@Z
	??A?$vector@V?$unique_ptr@V?$basic_node@Umap_node_info@map@kmint@@@graph@kmint@@U?$default_delete@V?$basic_node@Umap_node_info@map@kmint@@@graph@kmint@@@std@@@std@@V?$allocator@V?$unique_ptr@V?$basic_node@Umap_node_info@map@kmint@@@graph@kmint@@U?$default_delete@V?$basic_node@Umap_node_info@map@kmint@@@graph@kmint@@@std@@@std@@@2@@std@@QAEAAV?$unique_ptr@V?$basic_node@Umap_node_info@map@kmint@@@graph@kmint@@U?$default_delete@V?$basic_node@Umap_node_info@map@kmint@@@graph@kmint@@@std@@@1@I@Z
	??A?$vector@V?$unique_ptr@V?$basic_node@Uno_node_info@graph@kmint@@@graph@kmint@@U?$default_delete@V?$basic_node@Uno_node_info@graph@kmint@@@graph@kmint@@@std@@@std@@V?$allocator@V?$unique_ptr@V?$basic_node@Uno_node_info@graph@kmint@@@graph@kmint@@U?$default_delete@V?$basic_node@Uno_node_info@graph@kmint@@@graph@kmint@@@std@@@std@@@2@@std@@QAEAAV?$unique_ptr@V?$basic_node@Uno_node_info@graph@kmint@@@graph@kmint@@U?$default_delete@V?$basic_node@Uno_node_info@graph@kmint@@@graph@kmint@@@std@@@1@I@Z
	??B?$fpos@U_Mbstatet@@@std@@QBE_JXZ
	??Bsentry@?$basic_istream@DU?$char_traits@D@std@@@std@@QBE_NXZ
	??Bsurface@sdl@ui@kmint@@QBEPAUSDL_Surface@@XZ
	??C?$_Tree_iterator@V?$_Tree_val@U?$_Tree_simple_types@U?$pair@$$CBDUtile_info@map@kmint@@@std@@@std@@@std@@@std@@QBEPAU?$pair@$$CBDUtile_info@map@kmint@@@1@XZ
	??C?$_Tree_iterator@V?$_Tree_val@U?$_Tree_simple_types@U?$pair@$$CBV?$basic_string@DU?$char_traits@D@std@@V?$allocator@D@2@@std@@Vtexture@sdl@ui@kmint@@@std@@@std@@@std@@@std@@QBEPAU?$pair@$$CBV?$basic_string@DU?$char_traits@D@std@@V?$allocator@D@2@@std@@Vtexture@sdl@ui@kmint@@@1@XZ
	??C?$unique_ptr@USDL_Surface@@V?$destroyer@USDL_Surface@@@sdl@ui@kmint@@@std@@QBEPAUSDL_Surface@@XZ
	??C?$unique_ptr@Uimpl@frame@ui@kmint@@U?$default_delete@Uimpl@frame@ui@kmint@@@std@@@std@@QBEPAUimpl@frame@ui@kmint@@XZ
	??C?$unique_ptr@Vimpl@window@ui@kmint@@U?$default_delete@Vimpl@window@ui@kmint@@@std@@@std@@QBEPAVimpl@window@ui@kmint@@XZ
	??C?$wrapped_iterator@Vactor@play@kmint@@V?$_Vector_iterator@V?$_Vector_val@U?$_Simple_types@V?$unique_ptr@Vactor@play@kmint@@U?$default_delete@Vactor@play@kmint@@@std@@@std@@@std@@@std@@@std@@@util@kmint@@QAEPAVactor@play@2@XZ
	??D?$_Tree_const_iterator@V?$_Tree_val@U?$_Tree_simple_types@U?$pair@$$CBDUtile_info@map@kmint@@@std@@@std@@@std@@@std@@QBEABU?$pair@$$CBDUtile_info@map@kmint@@@1@XZ
	??D?$_Tree_const_iterator@V?$_Tree_val@U?$_Tree_simple_types@U?$pair@$$CBV?$basic_string@DU?$char_traits@D@std@@V?$allocator@D@2@@std@@Vtexture@sdl@ui@kmint@@@std@@@std@@@std@@@std@@QBEABU?$pair@$$CBV?$basic_string@DU?$char_traits@D@std@@V?$allocator@D@2@@std@@Vtexture@sdl@ui@kmint@@@1@XZ
	??D?$_Tree_iterator@V?$_Tree_val@U?$_Tree_simple_types@U?$pair@$$CBDUtile_info@map@kmint@@@std@@@std@@@std@@@std@@QBEAAU?$pair@$$CBDUtile_info@map@kmint@@@1@XZ
	??D?$_Tree_iterator@V?$_Tree_val@U?$_Tree_simple_types@U?$pair@$$CBV?$basic_string@DU?$char_traits@D@std@@V?$allocator@D@2@@std@@Vtexture@sdl@ui@kmint@@@std@@@std@@@std@@@std@@QBEAAU?$pair@$$CBV?$basic_string@DU?$char_traits@D@std@@V?$allocator@D@2@@std@@Vtexture@sdl@ui@kmint@@@1@XZ
	??D?$_Vector_const_iterator@V?$_Vector_val@U?$_Simple_types@V?$unique_ptr@Vactor@play@kmint@@U?$default_delete@Vactor@play@kmint@@@std@@@std@@@std@@@std@@@std@@QBEABV?$unique_ptr@Vactor@play@kmint@@U?$default_delete@Vactor@play@kmint@@@std@@@1@XZ
	??D?$_Vector_iterator@V?$_Vector_val@U?$_Simple_types@V?$unique_ptr@Vactor@play@kmint@@U?$default_delete@Vactor@play@kmint@@@std@@@std@@@std@@@std@@@std@@QBEAAV?$unique_ptr@Vactor@play@kmint@@U?$default_delete@Vactor@play@kmint@@@std@@@1@XZ
	??D?$back_insert_iterator@V?$vector@DV?$allocator@D@std@@@std@@@std@@QAEAAV01@XZ
	??D?$istream_iterator@DDU?$char_traits@D@std@@H@std@@QBEABDXZ
	??D?$unique_ptr@V?$basic_node@Umap_node_info@map@kmint@@@graph@kmint@@U?$default_delete@V?$basic_node@Umap_node_info@map@kmint@@@graph@kmint@@@std@@@std@@QBEAAV?$basic_node@Umap_node_info@map@kmint@@@graph@kmint@@XZ
	??D?$unique_ptr@V?$basic_node@Uno_node_info@graph@kmint@@@graph@kmint@@U?$default_delete@V?$basic_node@Uno_node_info@graph@kmint@@@graph@kmint@@@std@@@std@@QBEAAV?$basic_node@Uno_node_info@graph@kmint@@@graph@kmint@@XZ
	??D?$unique_ptr@Vactor@play@kmint@@U?$default_delete@Vactor@play@kmint@@@std@@@std@@QBEAAVactor@play@kmint@@XZ
	??D?$wrapped_iterator@Vactor@play@kmint@@V?$_Vector_iterator@V?$_Vector_val@U?$_Simple_types@V?$unique_ptr@Vactor@play@kmint@@U?$default_delete@Vactor@play@kmint@@@std@@@std@@@std@@@std@@@std@@@util@kmint@@QAEAAVactor@play@2@XZ
	??E?$_Tree_const_iterator@V?$_Tree_val@U?$_Tree_simple_types@U?$pair@$$CBDUtile_info@map@kmint@@@std@@@std@@@std@@@std@@QAE?AV01@H@Z
	??E?$_Tree_const_iterator@V?$_Tree_val@U?$_Tree_simple_types@U?$pair@$$CBDUtile_info@map@kmint@@@std@@@std@@@std@@@std@@QAEAAV01@XZ
	??E?$_Tree_const_iterator@V?$_Tree_val@U?$_Tree_simple_types@U?$pair@$$CBV?$basic_string@DU?$char_traits@D@std@@V?$allocator@D@2@@std@@Vtexture@sdl@ui@kmint@@@std@@@std@@@std@@@std@@QAE?AV01@H@Z
	??E?$_Tree_const_iterator@V?$_Tree_val@U?$_Tree_simple_types@U?$pair@$$CBV?$basic_string@DU?$char_traits@D@std@@V?$allocator@D@2@@std@@Vtexture@sdl@ui@kmint@@@std@@@std@@@std@@@std@@QAEAAV01@XZ
	??E?$_Tree_unchecked_const_iterator@V?$_Tree_val@U?$_Tree_simple_types@U?$pair@$$CBDUtile_info@map@kmint@@@std@@@std@@@std@@U_Iterator_base12@2@@std@@QAEAAV01@XZ
	??E?$_Tree_unchecked_const_iterator@V?$_Tree_val@U?$_Tree_simple_types@U?$pair@$$CBV?$basic_string@DU?$char_traits@D@std@@V?$allocator@D@2@@std@@Vtexture@sdl@ui@kmint@@@std@@@std@@@std@@U_Iterator_base12@2@@std@@QAEAAV01@XZ
	??E?$_Vector_const_iterator@V?$_Vector_val@U?$_Simple_types@V?$unique_ptr@Vactor@play@kmint@@U?$default_delete@Vactor@play@kmint@@@std@@@std@@@std@@@std@@@std@@QAEAAV01@XZ
	??E?$_Vector_iterator@V?$_Vector_val@U?$_Simple_types@V?$unique_ptr@Vactor@play@kmint@@U?$default_delete@Vactor@play@kmint@@@std@@@std@@@std@@@std@@@std@@QAEAAV01@XZ
	??E?$back_insert_iterator@V?$vector@DV?$allocator@D@std@@@std@@@std@@QAEAAV01@XZ
	??E?$istream_iterator@DDU?$char_traits@D@std@@H@std@@QAEAAV01@XZ
	??E?$wrapped_iterator@Vactor@play@kmint@@V?$_Vector_iterator@V?$_Vector_val@U?$_Simple_types@V?$unique_ptr@Vactor@play@kmint@@U?$default_delete@Vactor@play@kmint@@@std@@@std@@@std@@@std@@@std@@@util@kmint@@QAEAAV012@XZ
	??F?$_Tree_const_iterator@V?$_Tree_val@U?$_Tree_simple_types@U?$pair@$$CBDUtile_info@map@kmint@@@std@@@std@@@std@@@std@@QAEAAV01@XZ
	??F?$_Tree_const_iterator@V?$_Tree_val@U?$_Tree_simple_types@U?$pair@$$CBV?$basic_string@DU?$char_traits@D@std@@V?$allocator@D@2@@std@@Vtexture@sdl@ui@kmint@@@std@@@std@@@std@@@std@@QAEAAV01@XZ
	??F?$_Tree_iterator@V?$_Tree_val@U?$_Tree_simple_types@U?$pair@$$CBDUtile_info@map@kmint@@@std@@@std@@@std@@@std@@QAEAAV01@XZ
	??F?$_Tree_iterator@V?$_Tree_val@U?$_Tree_simple_types@U?$pair@$$CBV?$basic_string@DU?$char_traits@D@std@@V?$allocator@D@2@@std@@Vtexture@sdl@ui@kmint@@@std@@@std@@@std@@@std@@QAEAAV01@XZ
	??F?$_Tree_unchecked_const_iterator@V?$_Tree_val@U?$_Tree_simple_types@U?$pair@$$CBDUtile_info@map@kmint@@@std@@@std@@@std@@U_Iterator_base12@2@@std@@QAEAAV01@XZ
	??F?$_Tree_unchecked_const_iterator@V?$_Tree_val@U?$_Tree_simple_types@U?$pair@$$CBV?$basic_string@DU?$char_traits@D@std@@V?$allocator@D@2@@std@@Vtexture@sdl@ui@kmint@@@std@@@std@@@std@@U_Iterator_base12@2@@std@@QAEAAV01@XZ
	??R?$_Func_class@AAVactor@play@kmint@@AAV?$unique_ptr@Vactor@play@kmint@@U?$default_delete@Vactor@play@kmint@@@std@@@std@@@std@@QBEAAVactor@play@kmint@@AAV?$unique_ptr@Vactor@play@kmint@@U?$default_delete@Vactor@play@kmint@@@std@@@1@@Z
	??R?$_Rng_from_urng@IV?$mersenne_twister_engine@I$0CA@$0CHA@$0BIN@$0BP@$0JJAILANP@$0L@$0PPPPPPPP@$06$0JNCMFGIA@$0P@$0OPMGAAAA@$0BC@$0GMAHIJGF@@std@@@std@@QAEII@Z
	??R?$default_delete@Uimpl@frame@ui@kmint@@@std@@QBEXPAUimpl@frame@ui@kmint@@@Z
	??R?$default_delete@V?$basic_edge@Umap_node_info@map@kmint@@@graph@kmint@@@std@@QBEXPAV?$basic_edge@Umap_node_info@map@kmint@@@graph@kmint@@@Z
	??R?$default_delete@V?$basic_edge@Uno_node_info@graph@kmint@@@graph@kmint@@@std@@QBEXPAV?$basic_edge@Uno_node_info@graph@kmint@@@graph@kmint@@@Z
	??R?$default_delete@V?$basic_node@Umap_node_info@map@kmint@@@graph@kmint@@@std@@QBEXPAV?$basic_node@Umap_node_info@map@kmint@@@graph@kmint@@@Z
	??R?$default_delete@V?$basic_node@Uno_node_info@graph@kmint@@@graph@kmint@@@std@@QBEXPAV?$basic_node@Uno_node_info@graph@kmint@@@graph@kmint@@@Z
	??R?$default_delete@V_Facet_base@std@@@std@@QBEXPAV_Facet_base@1@@Z
	??R?$default_delete@Vactor@play@kmint@@@std@@QBEXPAVactor@play@kmint@@@Z
	??R?$default_delete@Vimpl@app@ui@kmint@@@std@@QBEXPAVimpl@app@ui@kmint@@@Z
	??R?$default_delete@Vimpl@window@ui@kmint@@@std@@QBEXPAVimpl@window@ui@kmint@@@Z
	??R?$destroyer@USDL_Renderer@@@sdl@ui@kmint@@QBEXPAUSDL_Renderer@@@Z
	??R?$destroyer@USDL_Surface@@@sdl@ui@kmint@@QBEXPAUSDL_Surface@@@Z
	??R?$destroyer@USDL_Texture@@@sdl@ui@kmint@@QBEXPAUSDL_Texture@@@Z
	??R?$destroyer@USDL_Window@@@sdl@ui@kmint@@QBEXPAUSDL_Window@@@Z
	??R?$less@D@std@@QBE_NABD0@Z
	??R?$less@V?$basic_string@DU?$char_traits@D@std@@V?$allocator@D@2@@std@@@std@@QBE_NABV?$basic_string@DU?$char_traits@D@std@@V?$allocator@D@2@@1@0@Z
	??R?$mersenne_twister@I$0CA@$0CHA@$0BIN@$0BP@$0JJAILANP@$0L@$06$0JNCMFGIA@$0P@$0OPMGAAAA@$0BC@@std@@QAEIXZ
	??Rrandom_device@std@@QAEIXZ
	??Uevents@ui@kmint@@YA?AW4modifier@012@W43012@0@Z
	??Y?$basic_string@DU?$char_traits@D@std@@V?$allocator@D@2@@std@@QAEAAV01@ABV01@@Z
	??Y?$basic_string@DU?$char_traits@D@std@@V?$allocator@D@2@@std@@QAEAAV01@D@Z
	??Y?$basic_string@DU?$char_traits@D@std@@V?$allocator@D@2@@std@@QAEAAV01@QBD@Z
	??_5events@ui@kmint@@YAAAW4modifier@012@AAW43012@W43012@@Z
	??_D?$basic_istringstream@DU?$char_traits@D@std@@V?$allocator@D@2@@std@@QAEXXZ
	?_Adjust@?$uniform_int@H@std@@CAII@Z
	?_Adjust@?$uniform_int@H@std@@CAIIU?$integral_constant@_N$00@2@@Z
	?_Adjust_manually_vector_aligned@std@@YAXAAPAXAAI@Z
	?_Adopt@_Iterator_base12@std@@QAEXPBU_Container_base12@2@@Z
	?_Alloc_proxy@?$_String_alloc@U?$_String_base_types@DV?$allocator@D@std@@@std@@@std@@QAEXXZ
	?_Alloc_proxy@?$_Tree_comp_alloc@V?$_Tmap_traits@DUtile_info@map@kmint@@U?$less@D@std@@V?$allocator@U?$pair@$$CBDUtile_info@map@kmint@@@std@@@5@$0A@@std@@@std@@QAEXXZ
	?_Alloc_proxy@?$_Tree_comp_alloc@V?$_Tmap_traits@V?$basic_string@DU?$char_traits@D@std@@V?$allocator@D@2@@std@@Vtexture@sdl@ui@kmint@@U?$less@V?$basic_string@DU?$char_traits@D@std@@V?$allocator@D@2@@std@@@2@V?$allocator@U?$pair@$$CBV?$basic_string@DU?$char_traits@D@std@@V?$allocator@D@2@@std@@Vtexture@sdl@ui@kmint@@@std@@@2@$0A@@std@@@std@@QAEXXZ
	?_Alloc_proxy@?$_Vector_alloc@U?$_Vec_base_types@DV?$allocator@D@std@@@std@@@std@@QAEXXZ
	?_Alloc_proxy@?$_Vector_alloc@U?$_Vec_base_types@HV?$allocator@H@std@@@std@@@std@@QAEXXZ
	?_Alloc_proxy@?$_Vector_alloc@U?$_Vec_base_types@V?$unique_ptr@V?$basic_edge@Umap_node_info@map@kmint@@@graph@kmint@@U?$default_delete@V?$basic_edge@Umap_node_info@map@kmint@@@graph@kmint@@@std@@@std@@V?$allocator@V?$unique_ptr@V?$basic_edge@Umap_node_info@map@kmint@@@graph@kmint@@U?$default_delete@V?$basic_edge@Umap_node_info@map@kmint@@@graph@kmint@@@std@@@std@@@2@@std@@@std@@QAEXXZ
	?_Alloc_proxy@?$_Vector_alloc@U?$_Vec_base_types@V?$unique_ptr@V?$basic_edge@Uno_node_info@graph@kmint@@@graph@kmint@@U?$default_delete@V?$basic_edge@Uno_node_info@graph@kmint@@@graph@kmint@@@std@@@std@@V?$allocator@V?$unique_ptr@V?$basic_edge@Uno_node_info@graph@kmint@@@graph@kmint@@U?$default_delete@V?$basic_edge@Uno_node_info@graph@kmint@@@graph@kmint@@@std@@@std@@@2@@std@@@std@@QAEXXZ
	?_Alloc_proxy@?$_Vector_alloc@U?$_Vec_base_types@V?$unique_ptr@V?$basic_node@Umap_node_info@map@kmint@@@graph@kmint@@U?$default_delete@V?$basic_node@Umap_node_info@map@kmint@@@graph@kmint@@@std@@@std@@V?$allocator@V?$unique_ptr@V?$basic_node@Umap_node_info@map@kmint@@@graph@kmint@@U?$default_delete@V?$basic_node@Umap_node_info@map@kmint@@@graph@kmint@@@std@@@std@@@2@@std@@@std@@QAEXXZ
	?_Alloc_proxy@?$_Vector_alloc@U?$_Vec_base_types@V?$unique_ptr@V?$basic_node@Uno_node_info@graph@kmint@@@graph@kmint@@U?$default_delete@V?$basic_node@Uno_node_info@graph@kmint@@@graph@kmint@@@std@@@std@@V?$allocator@V?$unique_ptr@V?$basic_node@Uno_node_info@graph@kmint@@@graph@kmint@@U?$default_delete@V?$basic_node@Uno_node_info@graph@kmint@@@graph@kmint@@@std@@@std@@@2@@std@@@std@@QAEXXZ
	?_Allocate@_Default_allocate_traits@std@@SAPAXI@Z
	?_Assign_rv_contents@?$basic_string@DU?$char_traits@D@std@@V?$allocator@D@2@@std@@QAEX$$QAV12@U?$integral_constant@_N$00@2@@Z
	?_Assign_rv_contents_with_alloc_always_equal@?$basic_string@DU?$char_traits@D@std@@V?$allocator@D@2@@std@@QAEX$$QAV12@U?$integral_constant@_N$00@2@@Z
	?_Become_small@?$basic_string@DU?$char_traits@D@std@@V?$allocator@D@2@@std@@QAEXXZ
	?_Buy@?$vector@DV?$allocator@D@std@@@std@@AAE_NI@Z
	?_Buy@?$vector@HV?$allocator@H@std@@@std@@AAE_NI@Z
	?_Buyheadnode@?$_Tree_comp_alloc@V?$_Tmap_traits@DUtile_info@map@kmint@@U?$less@D@std@@V?$allocator@U?$pair@$$CBDUtile_info@map@kmint@@@std@@@5@$0A@@std@@@std@@QAEPAU?$_Tree_node@U?$pair@$$CBDUtile_info@map@kmint@@@std@@PAX@2@XZ
	?_Buyheadnode@?$_Tree_comp_alloc@V?$_Tmap_traits@V?$basic_string@DU?$char_traits@D@std@@V?$allocator@D@2@@std@@Vtexture@sdl@ui@kmint@@U?$less@V?$basic_string@DU?$char_traits@D@std@@V?$allocator@D@2@@std@@@2@V?$allocator@U?$pair@$$CBV?$basic_string@DU?$char_traits@D@std@@V?$allocator@D@2@@std@@Vtexture@sdl@ui@kmint@@@std@@@2@$0A@@std@@@std@@QAEPAU?$_Tree_node@U?$pair@$$CBV?$basic_string@DU?$char_traits@D@std@@V?$allocator@D@2@@std@@Vtexture@sdl@ui@kmint@@@std@@PAX@2@XZ
	?_Buynode0@?$_Tree_comp_alloc@V?$_Tmap_traits@DUtile_info@map@kmint@@U?$less@D@std@@V?$allocator@U?$pair@$$CBDUtile_info@map@kmint@@@std@@@5@$0A@@std@@@std@@QAEPAU?$_Tree_node@U?$pair@$$CBDUtile_info@map@kmint@@@std@@PAX@2@XZ
	?_Buynode0@?$_Tree_comp_alloc@V?$_Tmap_traits@V?$basic_string@DU?$char_traits@D@std@@V?$allocator@D@2@@std@@Vtexture@sdl@ui@kmint@@U?$less@V?$basic_string@DU?$char_traits@D@std@@V?$allocator@D@2@@std@@@2@V?$allocator@U?$pair@$$CBV?$basic_string@DU?$char_traits@D@std@@V?$allocator@D@2@@std@@Vtexture@sdl@ui@kmint@@@std@@@2@$0A@@std@@@std@@QAEPAU?$_Tree_node@U?$pair@$$CBV?$basic_string@DU?$char_traits@D@std@@V?$allocator@D@2@@std@@Vtexture@sdl@ui@kmint@@@std@@PAX@2@XZ
	?_Calculate_growth@?$basic_string@DU?$char_traits@D@std@@V?$allocator@D@2@@std@@QBEII@Z
	?_Calculate_growth@?$vector@DV?$allocator@D@std@@@std@@ABEII@Z
	?_Calculate_growth@?$vector@PAVactor@play@kmint@@V?$allocator@PAVactor@play@kmint@@@std@@@std@@ABEII@Z
	?_Calculate_growth@?$vector@V?$unique_ptr@V?$basic_edge@Umap_node_info@map@kmint@@@graph@kmint@@U?$default_delete@V?$basic_edge@Umap_node_info@map@kmint@@@graph@kmint@@@std@@@std@@V?$allocator@V?$unique_ptr@V?$basic_edge@Umap_node_info@map@kmint@@@graph@kmint@@U?$default_delete@V?$basic_edge@Umap_node_info@map@kmint@@@graph@kmint@@@std@@@std@@@2@@std@@ABEII@Z
	?_Calculate_growth@?$vector@V?$unique_ptr@V?$basic_edge@Uno_node_info@graph@kmint@@@graph@kmint@@U?$default_delete@V?$basic_edge@Uno_node_info@graph@kmint@@@graph@kmint@@@std@@@std@@V?$allocator@V?$unique_ptr@V?$basic_edge@Uno_node_info@graph@kmint@@@graph@kmint@@U?$default_delete@V?$basic_edge@Uno_node_info@graph@kmint@@@graph@kmint@@@std@@@std@@@2@@std@@ABEII@Z
	?_Calculate_growth@?$vector@V?$unique_ptr@V?$basic_node@Umap_node_info@map@kmint@@@graph@kmint@@U?$default_delete@V?$basic_node@Umap_node_info@map@kmint@@@graph@kmint@@@std@@@std@@V?$allocator@V?$unique_ptr@V?$basic_node@Umap_node_info@map@kmint@@@graph@kmint@@U?$default_delete@V?$basic_node@Umap_node_info@map@kmint@@@graph@kmint@@@std@@@std@@@2@@std@@ABEII@Z
	?_Calculate_growth@?$vector@V?$unique_ptr@V?$basic_node@Uno_node_info@graph@kmint@@@graph@kmint@@U?$default_delete@V?$basic_node@Uno_node_info@graph@kmint@@@graph@kmint@@@std@@@std@@V?$allocator@V?$unique_ptr@V?$basic_node@Uno_node_info@graph@kmint@@@graph@kmint@@U?$default_delete@V?$basic_node@Uno_node_info@graph@kmint@@@graph@kmint@@@std@@@std@@@2@@std@@ABEII@Z
	?_Change_array@?$vector@DV?$allocator@D@std@@@std@@AAEXQADII@Z
	?_Change_array@?$vector@PAVactor@play@kmint@@V?$allocator@PAVactor@play@kmint@@@std@@@std@@AAEXQAPAVactor@play@kmint@@II@Z
	?_Change_array@?$vector@V?$unique_ptr@V?$basic_edge@Umap_node_info@map@kmint@@@graph@kmint@@U?$default_delete@V?$basic_edge@Umap_node_info@map@kmint@@@graph@kmint@@@std@@@std@@V?$allocator@V?$unique_ptr@V?$basic_edge@Umap_node_info@map@kmint@@@graph@kmint@@U?$default_delete@V?$basic_edge@Umap_node_info@map@kmint@@@graph@kmint@@@std@@@std@@@2@@std@@AAEXQAV?$unique_ptr@V?$basic_edge@Umap_node_info@map@kmint@@@graph@kmint@@U?$default_delete@V?$basic_edge@Umap_node_info@map@kmint@@@graph@kmint@@@std@@@2@II@Z
	?_Change_array@?$vector@V?$unique_ptr@V?$basic_edge@Uno_node_info@graph@kmint@@@graph@kmint@@U?$default_delete@V?$basic_edge@Uno_node_info@graph@kmint@@@graph@kmint@@@std@@@std@@V?$allocator@V?$unique_ptr@V?$basic_edge@Uno_node_info@graph@kmint@@@graph@kmint@@U?$default_delete@V?$basic_edge@Uno_node_info@graph@kmint@@@graph@kmint@@@std@@@std@@@2@@std@@AAEXQAV?$unique_ptr@V?$basic_edge@Uno_node_info@graph@kmint@@@graph@kmint@@U?$default_delete@V?$basic_edge@Uno_node_info@graph@kmint@@@graph@kmint@@@std@@@2@II@Z
	?_Change_array@?$vector@V?$unique_ptr@V?$basic_node@Umap_node_info@map@kmint@@@graph@kmint@@U?$default_delete@V?$basic_node@Umap_node_info@map@kmint@@@graph@kmint@@@std@@@std@@V?$allocator@V?$unique_ptr@V?$basic_node@Umap_node_info@map@kmint@@@graph@kmint@@U?$default_delete@V?$basic_node@Umap_node_info@map@kmint@@@graph@kmint@@@std@@@std@@@2@@std@@AAEXQAV?$unique_ptr@V?$basic_node@Umap_node_info@map@kmint@@@graph@kmint@@U?$default_delete@V?$basic_node@Umap_node_info@map@kmint@@@graph@kmint@@@std@@@2@II@Z
	?_Change_array@?$vector@V?$unique_ptr@V?$basic_node@Uno_node_info@graph@kmint@@@graph@kmint@@U?$default_delete@V?$basic_node@Uno_node_info@graph@kmint@@@graph@kmint@@@std@@@std@@V?$allocator@V?$unique_ptr@V?$basic_node@Uno_node_info@graph@kmint@@@graph@kmint@@U?$default_delete@V?$basic_node@Uno_node_info@graph@kmint@@@graph@kmint@@@std@@@std@@@2@@std@@AAEXQAV?$unique_ptr@V?$basic_node@Uno_node_info@graph@kmint@@@graph@kmint@@U?$default_delete@V?$basic_node@Uno_node_info@graph@kmint@@@graph@kmint@@@std@@@2@II@Z
	?_Check_offset@?$_String_val@U?$_Simple_types@D@std@@@std@@QBEXI@Z
	?_Clone@?$_Func_impl_no_alloc@P6AAAVactor@play@kmint@@ABV?$unique_ptr@Vactor@play@kmint@@U?$default_delete@Vactor@play@kmint@@@std@@@std@@@ZAAV123@AAV45@@std@@ABEPAV?$_Func_base@AAVactor@play@kmint@@AAV?$unique_ptr@Vactor@play@kmint@@U?$default_delete@Vactor@play@kmint@@@std@@@std@@@2@PAXU?$integral_constant@_N$0A@@2@@Z
	?_Clone@?$_Func_impl_no_alloc@P6AABVactor@play@kmint@@ABV?$unique_ptr@Vactor@play@kmint@@U?$default_delete@Vactor@play@kmint@@@std@@@std@@@ZABV123@ABV45@@std@@ABEPAV?$_Func_base@ABVactor@play@kmint@@ABV?$unique_ptr@Vactor@play@kmint@@U?$default_delete@Vactor@play@kmint@@@std@@@std@@@2@PAXU?$integral_constant@_N$0A@@2@@Z
	?_Clrcont@_Iterator_base12@std@@QAEXXZ
	?_Compare@?$_Tree@V?$_Tmap_traits@DUtile_info@map@kmint@@U?$less@D@std@@V?$allocator@U?$pair@$$CBDUtile_info@map@kmint@@@std@@@5@$0A@@std@@@std@@IBE_NABD0@Z
	?_Compare@?$_Tree@V?$_Tmap_traits@V?$basic_string@DU?$char_traits@D@std@@V?$allocator@D@2@@std@@Vtexture@sdl@ui@kmint@@U?$less@V?$basic_string@DU?$char_traits@D@std@@V?$allocator@D@2@@std@@@2@V?$allocator@U?$pair@$$CBV?$basic_string@DU?$char_traits@D@std@@V?$allocator@D@2@@std@@Vtexture@sdl@ui@kmint@@@std@@@2@$0A@@std@@@std@@IBE_NABV?$basic_string@DU?$char_traits@D@std@@V?$allocator@D@2@@2@0@Z
	?_Compat@?$_Vector_const_iterator@V?$_Vector_val@U?$_Simple_types@V?$unique_ptr@Vactor@play@kmint@@U?$default_delete@Vactor@play@kmint@@@std@@@std@@@std@@@std@@@std@@QBEXABV12@@Z
	?_Construct@?$_Tree_comp_alloc@V?$_Tmap_traits@DUtile_info@map@kmint@@U?$less@D@std@@V?$allocator@U?$pair@$$CBDUtile_info@map@kmint@@@std@@@5@$0A@@std@@@std@@QAEXXZ
	?_Construct@?$_Tree_comp_alloc@V?$_Tmap_traits@V?$basic_string@DU?$char_traits@D@std@@V?$allocator@D@2@@std@@Vtexture@sdl@ui@kmint@@U?$less@V?$basic_string@DU?$char_traits@D@std@@V?$allocator@D@2@@std@@@2@V?$allocator@U?$pair@$$CBV?$basic_string@DU?$char_traits@D@std@@V?$allocator@D@2@@std@@Vtexture@sdl@ui@kmint@@@std@@@2@$0A@@std@@@std@@QAEXXZ
	?_Construct_lv_contents@?$basic_string@DU?$char_traits@D@std@@V?$allocator@D@2@@std@@QAEXABV12@@Z
	?_Copy@?$_Func_impl_no_alloc@P6AAAVactor@play@kmint@@ABV?$unique_ptr@Vactor@play@kmint@@U?$default_delete@Vactor@play@kmint@@@std@@@std@@@ZAAV123@AAV45@@std@@EBEPAV?$_Func_base@AAVactor@play@kmint@@AAV?$unique_ptr@Vactor@play@kmint@@U?$default_delete@Vactor@play@kmint@@@std@@@std@@@2@PAX@Z
	?_Copy@?$_Func_impl_no_alloc@P6AABVactor@play@kmint@@ABV?$unique_ptr@Vactor@play@kmint@@U?$default_delete@Vactor@play@kmint@@@std@@@std@@@ZABV123@ABV45@@std@@EBEPAV?$_Func_base@ABVactor@play@kmint@@ABV?$unique_ptr@Vactor@play@kmint@@U?$default_delete@Vactor@play@kmint@@@std@@@std@@@2@PAX@Z
	?_Delete_this@?$_Func_impl_no_alloc@P6AAAVactor@play@kmint@@ABV?$unique_ptr@Vactor@play@kmint@@U?$default_delete@Vactor@play@kmint@@@std@@@std@@@ZAAV123@AAV45@@std@@EAEX_N@Z
	?_Delete_this@?$_Func_impl_no_alloc@P6AABVactor@play@kmint@@ABV?$unique_ptr@Vactor@play@kmint@@U?$default_delete@Vactor@play@kmint@@@std@@@std@@@ZABV123@ABV45@@std@@EAEX_N@Z
	?_Destroy@?$vector@DV?$allocator@D@std@@@std@@AAEXPAD0@Z
	?_Destroy@?$vector@HV?$allocator@H@std@@@std@@AAEXPAH0@Z
	?_Destroy@?$vector@PAVactor@play@kmint@@V?$allocator@PAVactor@play@kmint@@@std@@@std@@AAEXPAPAVactor@play@kmint@@0@Z
	?_Destroy@?$vector@V?$unique_ptr@V?$basic_edge@Umap_node_info@map@kmint@@@graph@kmint@@U?$default_delete@V?$basic_edge@Umap_node_info@map@kmint@@@graph@kmint@@@std@@@std@@V?$allocator@V?$unique_ptr@V?$basic_edge@Umap_node_info@map@kmint@@@graph@kmint@@U?$default_delete@V?$basic_edge@Umap_node_info@map@kmint@@@graph@kmint@@@std@@@std@@@2@@std@@AAEXPAV?$unique_ptr@V?$basic_edge@Umap_node_info@map@kmint@@@graph@kmint@@U?$default_delete@V?$basic_edge@Umap_node_info@map@kmint@@@graph@kmint@@@std@@@2@0@Z
	?_Destroy@?$vector@V?$unique_ptr@V?$basic_edge@Uno_node_info@graph@kmint@@@graph@kmint@@U?$default_delete@V?$basic_edge@Uno_node_info@graph@kmint@@@graph@kmint@@@std@@@std@@V?$allocator@V?$unique_ptr@V?$basic_edge@Uno_node_info@graph@kmint@@@graph@kmint@@U?$default_delete@V?$basic_edge@Uno_node_info@graph@kmint@@@graph@kmint@@@std@@@std@@@2@@std@@AAEXPAV?$unique_ptr@V?$basic_edge@Uno_node_info@graph@kmint@@@graph@kmint@@U?$default_delete@V?$basic_edge@Uno_node_info@graph@kmint@@@graph@kmint@@@std@@@2@0@Z
	?_Destroy@?$vector@V?$unique_ptr@V?$basic_node@Umap_node_info@map@kmint@@@graph@kmint@@U?$default_delete@V?$basic_node@Umap_node_info@map@kmint@@@graph@kmint@@@std@@@std@@V?$allocator@V?$unique_ptr@V?$basic_node@Umap_node_info@map@kmint@@@graph@kmint@@U?$default_delete@V?$basic_node@Umap_node_info@map@kmint@@@graph@kmint@@@std@@@std@@@2@@std@@AAEXPAV?$unique_ptr@V?$basic_node@Umap_node_info@map@kmint@@@graph@kmint@@U?$default_delete@V?$basic_node@Umap_node_info@map@kmint@@@graph@kmint@@@std@@@2@0@Z
	?_Destroy@?$vector@V?$unique_ptr@V?$basic_node@Uno_node_info@graph@kmint@@@graph@kmint@@U?$default_delete@V?$basic_node@Uno_node_info@graph@kmint@@@graph@kmint@@@std@@@std@@V?$allocator@V?$unique_ptr@V?$basic_node@Uno_node_info@graph@kmint@@@graph@kmint@@U?$default_delete@V?$basic_node@Uno_node_info@graph@kmint@@@graph@kmint@@@std@@@std@@@2@@std@@AAEXPAV?$unique_ptr@V?$basic_node@Uno_node_info@graph@kmint@@@graph@kmint@@U?$default_delete@V?$basic_node@Uno_node_info@graph@kmint@@@graph@kmint@@@std@@@2@0@Z
	?_Destroy@?$vector@V?$unique_ptr@Vactor@play@kmint@@U?$default_delete@Vactor@play@kmint@@@std@@@std@@V?$allocator@V?$unique_ptr@Vactor@play@kmint@@U?$default_delete@Vactor@play@kmint@@@std@@@std@@@2@@std@@AAEXPAV?$unique_ptr@Vactor@play@kmint@@U?$default_delete@Vactor@play@kmint@@@std@@@2@0@Z
	?_Destroy_if_node@?$_Tree@V?$_Tmap_traits@DUtile_info@map@kmint@@U?$less@D@std@@V?$allocator@U?$pair@$$CBDUtile_info@map@kmint@@@std@@@5@$0A@@std@@@std@@IAEXPAU?$_Tree_node@U?$pair@$$CBDUtile_info@map@kmint@@@std@@PAX@2@@Z
	?_Destroy_if_node@?$_Tree@V?$_Tmap_traits@V?$basic_string@DU?$char_traits@D@std@@V?$allocator@D@2@@std@@Vtexture@sdl@ui@kmint@@U?$less@V?$basic_string@DU?$char_traits@D@std@@V?$allocator@D@2@@std@@@2@V?$allocator@U?$pair@$$CBV?$basic_string@DU?$char_traits@D@std@@V?$allocator@D@2@@std@@Vtexture@sdl@ui@kmint@@@std@@@2@$0A@@std@@@std@@IAEXPAU?$_Tree_node@U?$pair@$$CBV?$basic_string@DU?$char_traits@D@std@@V?$allocator@D@2@@std@@Vtexture@sdl@ui@kmint@@@std@@PAX@2@@Z
	?_Do_call@?$_Func_impl_no_alloc@P6AAAVactor@play@kmint@@ABV?$unique_ptr@Vactor@play@kmint@@U?$default_delete@Vactor@play@kmint@@@std@@@std@@@ZAAV123@AAV45@@std@@EAEAAVactor@play@kmint@@AAV?$unique_ptr@Vactor@play@kmint@@U?$default_delete@Vactor@play@kmint@@@std@@@2@@Z
	?_Do_call@?$_Func_impl_no_alloc@P6AABVactor@play@kmint@@ABV?$unique_ptr@Vactor@play@kmint@@U?$default_delete@Vactor@play@kmint@@@std@@@std@@@ZABV123@ABV45@@std@@EAEABVactor@play@kmint@@ABV?$unique_ptr@Vactor@play@kmint@@U?$default_delete@Vactor@play@kmint@@@std@@@2@@Z
	?_Empty@?$_Func_class@AAVactor@play@kmint@@AAV?$unique_ptr@Vactor@play@kmint@@U?$default_delete@Vactor@play@kmint@@@std@@@std@@@std@@IBE_NXZ
	?_Empty@?$_Func_class@ABVactor@play@kmint@@ABV?$unique_ptr@Vactor@play@kmint@@U?$default_delete@Vactor@play@kmint@@@std@@@std@@@std@@IBE_NXZ
	?_Eos@?$basic_string@DU?$char_traits@D@std@@V?$allocator@D@2@@std@@QAEXI@Z
	?_Equal@?$istream_iterator@DDU?$char_traits@D@std@@H@std@@QBE_NABV12@@Z
	?_Erase@?$_Tree@V?$_Tmap_traits@DUtile_info@map@kmint@@U?$less@D@std@@V?$allocator@U?$pair@$$CBDUtile_info@map@kmint@@@std@@@5@$0A@@std@@@std@@IAEXPAU?$_Tree_node@U?$pair@$$CBDUtile_info@map@kmint@@@std@@PAX@2@@Z
	?_Erase@?$_Tree@V?$_Tmap_traits@V?$basic_string@DU?$char_traits@D@std@@V?$allocator@D@2@@std@@Vtexture@sdl@ui@kmint@@U?$less@V?$basic_string@DU?$char_traits@D@std@@V?$allocator@D@2@@std@@@2@V?$allocator@U?$pair@$$CBV?$basic_string@DU?$char_traits@D@std@@V?$allocator@D@2@@std@@Vtexture@sdl@ui@kmint@@@std@@@2@$0A@@std@@@std@@IAEXPAU?$_Tree_node@U?$pair@$$CBV?$basic_string@DU?$char_traits@D@std@@V?$allocator@D@2@@std@@Vtexture@sdl@ui@kmint@@@std@@PAX@2@@Z
	?_Extract@?$_Tree_val@U?$_Tree_simple_types@U?$pair@$$CBDUtile_info@map@kmint@@@std@@@std@@@std@@QAEPAU?$_Tree_node@U?$pair@$$CBDUtile_info@map@kmint@@@std@@PAX@2@V?$_Tree_const_iterator@V?$_Tree_val@U?$_Tree_simple_types@U?$pair@$$CBDUtile_info@map@kmint@@@std@@@std@@@std@@@2@@Z
	?_Extract@?$_Tree_val@U?$_Tree_simple_types@U?$pair@$$CBV?$basic_string@DU?$char_traits@D@std@@V?$allocator@D@2@@std@@Vtexture@sdl@ui@kmint@@@std@@@std@@@std@@QAEPAU?$_Tree_node@U?$pair@$$CBV?$basic_string@DU?$char_traits@D@std@@V?$allocator@D@2@@std@@Vtexture@sdl@ui@kmint@@@std@@PAX@2@V?$_Tree_const_iterator@V?$_Tree_val@U?$_Tree_simple_types@U?$pair@$$CBV?$basic_string@DU?$char_traits@D@std@@V?$allocator@D@2@@std@@Vtexture@sdl@ui@kmint@@@std@@@std@@@std@@@2@@Z
	?_Free_proxy@?$_String_alloc@U?$_String_base_types@DV?$allocator@D@std@@@std@@@std@@QAEXXZ
	?_Free_proxy@?$_Tree_comp_alloc@V?$_Tmap_traits@DUtile_info@map@kmint@@U?$less@D@std@@V?$allocator@U?$pair@$$CBDUtile_info@map@kmint@@@std@@@5@$0A@@std@@@std@@QAEXXZ
	?_Free_proxy@?$_Tree_comp_alloc@V?$_Tmap_traits@V?$basic_string@DU?$char_traits@D@std@@V?$allocator@D@2@@std@@Vtexture@sdl@ui@kmint@@U?$less@V?$basic_string@DU?$char_traits@D@std@@V?$allocator@D@2@@std@@@2@V?$allocator@U?$pair@$$CBV?$basic_string@DU?$char_traits@D@std@@V?$allocator@D@2@@std@@Vtexture@sdl@ui@kmint@@@std@@@2@$0A@@std@@@std@@QAEXXZ
	?_Free_proxy@?$_Vector_alloc@U?$_Vec_base_types@DV?$allocator@D@std@@@std@@@std@@QAEXXZ
	?_Free_proxy@?$_Vector_alloc@U?$_Vec_base_types@HV?$allocator@H@std@@@std@@@std@@QAEXXZ
	?_Free_proxy@?$_Vector_alloc@U?$_Vec_base_types@V?$unique_ptr@V?$basic_edge@Umap_node_info@map@kmint@@@graph@kmint@@U?$default_delete@V?$basic_edge@Umap_node_info@map@kmint@@@graph@kmint@@@std@@@std@@V?$allocator@V?$unique_ptr@V?$basic_edge@Umap_node_info@map@kmint@@@graph@kmint@@U?$default_delete@V?$basic_edge@Umap_node_info@map@kmint@@@graph@kmint@@@std@@@std@@@2@@std@@@std@@QAEXXZ
	?_Free_proxy@?$_Vector_alloc@U?$_Vec_base_types@V?$unique_ptr@V?$basic_edge@Uno_node_info@graph@kmint@@@graph@kmint@@U?$default_delete@V?$basic_edge@Uno_node_info@graph@kmint@@@graph@kmint@@@std@@@std@@V?$allocator@V?$unique_ptr@V?$basic_edge@Uno_node_info@graph@kmint@@@graph@kmint@@U?$default_delete@V?$basic_edge@Uno_node_info@graph@kmint@@@graph@kmint@@@std@@@std@@@2@@std@@@std@@QAEXXZ
	?_Free_proxy@?$_Vector_alloc@U?$_Vec_base_types@V?$unique_ptr@V?$basic_node@Umap_node_info@map@kmint@@@graph@kmint@@U?$default_delete@V?$basic_node@Umap_node_info@map@kmint@@@graph@kmint@@@std@@@std@@V?$allocator@V?$unique_ptr@V?$basic_node@Umap_node_info@map@kmint@@@graph@kmint@@U?$default_delete@V?$basic_node@Umap_node_info@map@kmint@@@graph@kmint@@@std@@@std@@@2@@std@@@std@@QAEXXZ
	?_Free_proxy@?$_Vector_alloc@U?$_Vec_base_types@V?$unique_ptr@V?$basic_node@Uno_node_info@graph@kmint@@@graph@kmint@@U?$default_delete@V?$basic_node@Uno_node_info@graph@kmint@@@graph@kmint@@@std@@@std@@V?$allocator@V?$unique_ptr@V?$basic_node@Uno_node_info@graph@kmint@@@graph@kmint@@U?$default_delete@V?$basic_node@Uno_node_info@graph@kmint@@@graph@kmint@@@std@@@std@@@2@@std@@@std@@QAEXXZ
	?_Freeheadnode@?$_Tree_comp_alloc@V?$_Tmap_traits@DUtile_info@map@kmint@@U?$less@D@std@@V?$allocator@U?$pair@$$CBDUtile_info@map@kmint@@@std@@@5@$0A@@std@@@std@@QAEXPAU?$_Tree_node@U?$pair@$$CBDUtile_info@map@kmint@@@std@@PAX@2@@Z
	?_Freeheadnode@?$_Tree_comp_alloc@V?$_Tmap_traits@V?$basic_string@DU?$char_traits@D@std@@V?$allocator@D@2@@std@@Vtexture@sdl@ui@kmint@@U?$less@V?$basic_string@DU?$char_traits@D@std@@V?$allocator@D@2@@std@@@2@V?$allocator@U?$pair@$$CBV?$basic_string@DU?$char_traits@D@std@@V?$allocator@D@2@@std@@Vtexture@sdl@ui@kmint@@@std@@@2@$0A@@std@@@std@@QAEXPAU?$_Tree_node@U?$pair@$$CBV?$basic_string@DU?$char_traits@D@std@@V?$allocator@D@2@@std@@Vtexture@sdl@ui@kmint@@@std@@PAX@2@@Z
	?_Freenode0@?$_Tree_comp_alloc@V?$_Tmap_traits@DUtile_info@map@kmint@@U?$less@D@std@@V?$allocator@U?$pair@$$CBDUtile_info@map@kmint@@@std@@@5@$0A@@std@@@std@@QAEXPAU?$_Tree_node@U?$pair@$$CBDUtile_info@map@kmint@@@std@@PAX@2@@Z
	?_Freenode0@?$_Tree_comp_alloc@V?$_Tmap_traits@V?$basic_string@DU?$char_traits@D@std@@V?$allocator@D@2@@std@@Vtexture@sdl@ui@kmint@@U?$less@V?$basic_string@DU?$char_traits@D@std@@V?$allocator@D@2@@std@@@2@V?$allocator@U?$pair@$$CBV?$basic_string@DU?$char_traits@D@std@@V?$allocator@D@2@@std@@Vtexture@sdl@ui@kmint@@@std@@@2@$0A@@std@@@std@@QAEXPAU?$_Tree_node@U?$pair@$$CBV?$basic_string@DU?$char_traits@D@std@@V?$allocator@D@2@@std@@Vtexture@sdl@ui@kmint@@@std@@PAX@2@@Z
	?_Get@?$_Func_impl_no_alloc@P6AAAVactor@play@kmint@@ABV?$unique_ptr@Vactor@play@kmint@@U?$default_delete@Vactor@play@kmint@@@std@@@std@@@ZAAV123@AAV45@@std@@EBEPBXXZ
	?_Get@?$_Func_impl_no_alloc@P6AABVactor@play@kmint@@ABV?$unique_ptr@Vactor@play@kmint@@U?$default_delete@Vactor@play@kmint@@@std@@@std@@@ZABV123@ABV45@@std@@EBEPBXXZ
	?_Get_all_bits@?$_Rng_from_urng@IV?$mersenne_twister_engine@I$0CA@$0CHA@$0BIN@$0BP@$0JJAILANP@$0L@$0PPPPPPPP@$06$0JNCMFGIA@$0P@$0OPMGAAAA@$0BC@$0GMAHIJGF@@std@@@std@@QAEIXZ
	?_Get_bits@?$_Rng_from_urng@IV?$mersenne_twister_engine@I$0CA@$0CHA@$0BIN@$0BP@$0JJAILANP@$0L@$0PPPPPPPP@$06$0JNCMFGIA@$0P@$0OPMGAAAA@$0BC@$0GMAHIJGF@@std@@@std@@AAEIXZ
	?_Get_data@?$_String_alloc@U?$_String_base_types@DV?$allocator@D@std@@@std@@@std@@QAEAAV?$_String_val@U?$_Simple_types@D@std@@@2@XZ
	?_Get_data@?$_String_alloc@U?$_String_base_types@DV?$allocator@D@std@@@std@@@std@@QBEABV?$_String_val@U?$_Simple_types@D@std@@@2@XZ
	?_Get_data@?$_Tree_comp_alloc@V?$_Tmap_traits@DUtile_info@map@kmint@@U?$less@D@std@@V?$allocator@U?$pair@$$CBDUtile_info@map@kmint@@@std@@@5@$0A@@std@@@std@@QAEAAV?$_Tree_val@U?$_Tree_simple_types@U?$pair@$$CBDUtile_info@map@kmint@@@std@@@std@@@2@XZ
	?_Get_data@?$_Tree_comp_alloc@V?$_Tmap_traits@DUtile_info@map@kmint@@U?$less@D@std@@V?$allocator@U?$pair@$$CBDUtile_info@map@kmint@@@std@@@5@$0A@@std@@@std@@QBEABV?$_Tree_val@U?$_Tree_simple_types@U?$pair@$$CBDUtile_info@map@kmint@@@std@@@std@@@2@XZ
	?_Get_data@?$_Tree_comp_alloc@V?$_Tmap_traits@V?$basic_string@DU?$char_traits@D@std@@V?$allocator@D@2@@std@@Vtexture@sdl@ui@kmint@@U?$less@V?$basic_string@DU?$char_traits@D@std@@V?$allocator@D@2@@std@@@2@V?$allocator@U?$pair@$$CBV?$basic_string@DU?$char_traits@D@std@@V?$allocator@D@2@@std@@Vtexture@sdl@ui@kmint@@@std@@@2@$0A@@std@@@std@@QAEAAV?$_Tree_val@U?$_Tree_simple_types@U?$pair@$$CBV?$basic_string@DU?$char_traits@D@std@@V?$allocator@D@2@@std@@Vtexture@sdl@ui@kmint@@@std@@@std@@@2@XZ
	?_Get_data@?$_Tree_comp_alloc@V?$_Tmap_traits@V?$basic_string@DU?$char_traits@D@std@@V?$allocator@D@2@@std@@Vtexture@sdl@ui@kmint@@U?$less@V?$basic_string@DU?$char_traits@D@std@@V?$allocator@D@2@@std@@@2@V?$allocator@U?$pair@$$CBV?$basic_string@DU?$char_traits@D@std@@V?$allocator@D@2@@std@@Vtexture@sdl@ui@kmint@@@std@@@2@$0A@@std@@@std@@QBEABV?$_Tree_val@U?$_Tree_simple_types@U?$pair@$$CBV?$basic_string@DU?$char_traits@D@std@@V?$allocator@D@2@@std@@Vtexture@sdl@ui@kmint@@@std@@@std@@@2@XZ
	?_Get_data@?$_Vector_alloc@U?$_Vec_base_types@DV?$allocator@D@std@@@std@@@std@@QAEAAV?$_Vector_val@U?$_Simple_types@D@std@@@2@XZ
	?_Get_data@?$_Vector_alloc@U?$_Vec_base_types@DV?$allocator@D@std@@@std@@@std@@QBEABV?$_Vector_val@U?$_Simple_types@D@std@@@2@XZ
	?_Get_data@?$_Vector_alloc@U?$_Vec_base_types@HV?$allocator@H@std@@@std@@@std@@QAEAAV?$_Vector_val@U?$_Simple_types@H@std@@@2@XZ
	?_Get_data@?$_Vector_alloc@U?$_Vec_base_types@HV?$allocator@H@std@@@std@@@std@@QBEABV?$_Vector_val@U?$_Simple_types@H@std@@@2@XZ
	?_Get_data@?$_Vector_alloc@U?$_Vec_base_types@PAVactor@play@kmint@@V?$allocator@PAVactor@play@kmint@@@std@@@std@@@std@@QAEAAV?$_Vector_val@U?$_Simple_types@PAVactor@play@kmint@@@std@@@2@XZ
	?_Get_data@?$_Vector_alloc@U?$_Vec_base_types@PAVactor@play@kmint@@V?$allocator@PAVactor@play@kmint@@@std@@@std@@@std@@QBEABV?$_Vector_val@U?$_Simple_types@PAVactor@play@kmint@@@std@@@2@XZ
	?_Get_data@?$_Vector_alloc@U?$_Vec_base_types@V?$unique_ptr@V?$basic_edge@Umap_node_info@map@kmint@@@graph@kmint@@U?$default_delete@V?$basic_edge@Umap_node_info@map@kmint@@@graph@kmint@@@std@@@std@@V?$allocator@V?$unique_ptr@V?$basic_edge@Umap_node_info@map@kmint@@@graph@kmint@@U?$default_delete@V?$basic_edge@Umap_node_info@map@kmint@@@graph@kmint@@@std@@@std@@@2@@std@@@std@@QAEAAV?$_Vector_val@U?$_Simple_types@V?$unique_ptr@V?$basic_edge@Umap_node_info@map@kmint@@@graph@kmint@@U?$default_delete@V?$basic_edge@Umap_node_info@map@kmint@@@graph@kmint@@@std@@@std@@@std@@@2@XZ
	?_Get_data@?$_Vector_alloc@U?$_Vec_base_types@V?$unique_ptr@V?$basic_edge@Umap_node_info@map@kmint@@@graph@kmint@@U?$default_delete@V?$basic_edge@Umap_node_info@map@kmint@@@graph@kmint@@@std@@@std@@V?$allocator@V?$unique_ptr@V?$basic_edge@Umap_node_info@map@kmint@@@graph@kmint@@U?$default_delete@V?$basic_edge@Umap_node_info@map@kmint@@@graph@kmint@@@std@@@std@@@2@@std@@@std@@QBEABV?$_Vector_val@U?$_Simple_types@V?$unique_ptr@V?$basic_edge@Umap_node_info@map@kmint@@@graph@kmint@@U?$default_delete@V?$basic_edge@Umap_node_info@map@kmint@@@graph@kmint@@@std@@@std@@@std@@@2@XZ
	?_Get_data@?$_Vector_alloc@U?$_Vec_base_types@V?$unique_ptr@V?$basic_edge@Uno_node_info@graph@kmint@@@graph@kmint@@U?$default_delete@V?$basic_edge@Uno_node_info@graph@kmint@@@graph@kmint@@@std@@@std@@V?$allocator@V?$unique_ptr@V?$basic_edge@Uno_node_info@graph@kmint@@@graph@kmint@@U?$default_delete@V?$basic_edge@Uno_node_info@graph@kmint@@@graph@kmint@@@std@@@std@@@2@@std@@@std@@QAEAAV?$_Vector_val@U?$_Simple_types@V?$unique_ptr@V?$basic_edge@Uno_node_info@graph@kmint@@@graph@kmint@@U?$default_delete@V?$basic_edge@Uno_node_info@graph@kmint@@@graph@kmint@@@std@@@std@@@std@@@2@XZ
	?_Get_data@?$_Vector_alloc@U?$_Vec_base_types@V?$unique_ptr@V?$basic_edge@Uno_node_info@graph@kmint@@@graph@kmint@@U?$default_delete@V?$basic_edge@Uno_node_info@graph@kmint@@@graph@kmint@@@std@@@std@@V?$allocator@V?$unique_ptr@V?$basic_edge@Uno_node_info@graph@kmint@@@graph@kmint@@U?$default_delete@V?$basic_edge@Uno_node_info@graph@kmint@@@graph@kmint@@@std@@@std@@@2@@std@@@std@@QBEABV?$_Vector_val@U?$_Simple_types@V?$unique_ptr@V?$basic_edge@Uno_node_info@graph@kmint@@@graph@kmint@@U?$default_delete@V?$basic_edge@Uno_node_info@graph@kmint@@@graph@kmint@@@std@@@std@@@std@@@2@XZ
	?_Get_data@?$_Vector_alloc@U?$_Vec_base_types@V?$unique_ptr@V?$basic_node@Umap_node_info@map@kmint@@@graph@kmint@@U?$default_delete@V?$basic_node@Umap_node_info@map@kmint@@@graph@kmint@@@std@@@std@@V?$allocator@V?$unique_ptr@V?$basic_node@Umap_node_info@map@kmint@@@graph@kmint@@U?$default_delete@V?$basic_node@Umap_node_info@map@kmint@@@graph@kmint@@@std@@@std@@@2@@std@@@std@@QAEAAV?$_Vector_val@U?$_Simple_types@V?$unique_ptr@V?$basic_node@Umap_node_info@map@kmint@@@graph@kmint@@U?$default_delete@V?$basic_node@Umap_node_info@map@kmint@@@graph@kmint@@@std@@@std@@@std@@@2@XZ
	?_Get_data@?$_Vector_alloc@U?$_Vec_base_types@V?$unique_ptr@V?$basic_node@Umap_node_info@map@kmint@@@graph@kmint@@U?$default_delete@V?$basic_node@Umap_node_info@map@kmint@@@graph@kmint@@@std@@@std@@V?$allocator@V?$unique_ptr@V?$basic_node@Umap_node_info@map@kmint@@@graph@kmint@@U?$default_delete@V?$basic_node@Umap_node_info@map@kmint@@@graph@kmint@@@std@@@std@@@2@@std@@@std@@QBEABV?$_Vector_val@U?$_Simple_types@V?$unique_ptr@V?$basic_node@Umap_node_info@map@kmint@@@graph@kmint@@U?$default_delete@V?$basic_node@Umap_node_info@map@kmint@@@graph@kmint@@@std@@@std@@@std@@@2@XZ
	?_Get_data@?$_Vector_alloc@U?$_Vec_base_types@V?$unique_ptr@V?$basic_node@Uno_node_info@graph@kmint@@@graph@kmint@@U?$default_delete@V?$basic_node@Uno_node_info@graph@kmint@@@graph@kmint@@@std@@@std@@V?$allocator@V?$unique_ptr@V?$basic_node@Uno_node_info@graph@kmint@@@graph@kmint@@U?$default_delete@V?$basic_node@Uno_node_info@graph@kmint@@@graph@kmint@@@std@@@std@@@2@@std@@@std@@QAEAAV?$_Vector_val@U?$_Simple_types@V?$unique_ptr@V?$basic_node@Uno_node_info@graph@kmint@@@graph@kmint@@U?$default_delete@V?$basic_node@Uno_node_info@graph@kmint@@@graph@kmint@@@std@@@std@@@std@@@2@XZ
	?_Get_data@?$_Vector_alloc@U?$_Vec_base_types@V?$unique_ptr@V?$basic_node@Uno_node_info@graph@kmint@@@graph@kmint@@U?$default_delete@V?$basic_node@Uno_node_info@graph@kmint@@@graph@kmint@@@std@@@std@@V?$allocator@V?$unique_ptr@V?$basic_node@Uno_node_info@graph@kmint@@@graph@kmint@@U?$default_delete@V?$basic_node@Uno_node_info@graph@kmint@@@graph@kmint@@@std@@@std@@@2@@std@@@std@@QBEABV?$_Vector_val@U?$_Simple_types@V?$unique_ptr@V?$basic_node@Uno_node_info@graph@kmint@@@graph@kmint@@U?$default_delete@V?$basic_node@Uno_node_info@graph@kmint@@@graph@kmint@@@std@@@std@@@std@@@2@XZ
	?_Get_data@?$_Vector_alloc@U?$_Vec_base_types@V?$unique_ptr@Vactor@play@kmint@@U?$default_delete@Vactor@play@kmint@@@std@@@std@@V?$allocator@V?$unique_ptr@Vactor@play@kmint@@U?$default_delete@Vactor@play@kmint@@@std@@@std@@@2@@std@@@std@@QAEAAV?$_Vector_val@U?$_Simple_types@V?$unique_ptr@Vactor@play@kmint@@U?$default_delete@Vactor@play@kmint@@@std@@@std@@@std@@@2@XZ
	?_Get_data@?$_Vector_alloc@U?$_Vec_base_types@V?$unique_ptr@Vactor@play@kmint@@U?$default_delete@Vactor@play@kmint@@@std@@@std@@V?$allocator@V?$unique_ptr@Vactor@play@kmint@@U?$default_delete@Vactor@play@kmint@@@std@@@std@@@2@@std@@@std@@QBEABV?$_Vector_val@U?$_Simple_types@V?$unique_ptr@Vactor@play@kmint@@U?$default_delete@Vactor@play@kmint@@@std@@@std@@@std@@@2@XZ
	?_Get_first@?$_Compressed_pair@U?$default_delete@Uimpl@frame@ui@kmint@@@std@@PAUimpl@frame@ui@kmint@@$00@std@@QAEAAU?$default_delete@Uimpl@frame@ui@kmint@@@2@XZ
	?_Get_first@?$_Compressed_pair@U?$default_delete@V?$basic_edge@Umap_node_info@map@kmint@@@graph@kmint@@@std@@PAV?$basic_edge@Umap_node_info@map@kmint@@@graph@kmint@@$00@std@@QAEAAU?$default_delete@V?$basic_edge@Umap_node_info@map@kmint@@@graph@kmint@@@2@XZ
	?_Get_first@?$_Compressed_pair@U?$default_delete@V?$basic_edge@Uno_node_info@graph@kmint@@@graph@kmint@@@std@@PAV?$basic_edge@Uno_node_info@graph@kmint@@@graph@kmint@@$00@std@@QAEAAU?$default_delete@V?$basic_edge@Uno_node_info@graph@kmint@@@graph@kmint@@@2@XZ
	?_Get_first@?$_Compressed_pair@U?$default_delete@V?$basic_node@Umap_node_info@map@kmint@@@graph@kmint@@@std@@PAV?$basic_node@Umap_node_info@map@kmint@@@graph@kmint@@$00@std@@QAEAAU?$default_delete@V?$basic_node@Umap_node_info@map@kmint@@@graph@kmint@@@2@XZ
	?_Get_first@?$_Compressed_pair@U?$default_delete@V?$basic_node@Uno_node_info@graph@kmint@@@graph@kmint@@@std@@PAV?$basic_node@Uno_node_info@graph@kmint@@@graph@kmint@@$00@std@@QAEAAU?$default_delete@V?$basic_node@Uno_node_info@graph@kmint@@@graph@kmint@@@2@XZ
	?_Get_first@?$_Compressed_pair@U?$default_delete@V_Facet_base@std@@@std@@PAV_Facet_base@2@$00@std@@QAEAAU?$default_delete@V_Facet_base@std@@@2@XZ
	?_Get_first@?$_Compressed_pair@U?$default_delete@Vactor@play@kmint@@@std@@PAVactor@play@kmint@@$00@std@@QAEAAU?$default_delete@Vactor@play@kmint@@@2@XZ
	?_Get_first@?$_Compressed_pair@U?$default_delete@Vimpl@app@ui@kmint@@@std@@PAVimpl@app@ui@kmint@@$00@std@@QAEAAU?$default_delete@Vimpl@app@ui@kmint@@@2@XZ
	?_Get_first@?$_Compressed_pair@U?$default_delete@Vimpl@window@ui@kmint@@@std@@PAVimpl@window@ui@kmint@@$00@std@@QAEAAU?$default_delete@Vimpl@window@ui@kmint@@@2@XZ
	?_Get_first@?$_Compressed_pair@U?$less@D@std@@V?$_Compressed_pair@V?$allocator@U?$_Tree_node@U?$pair@$$CBDUtile_info@map@kmint@@@std@@PAX@std@@@std@@V?$_Tree_val@U?$_Tree_simple_types@U?$pair@$$CBDUtile_info@map@kmint@@@std@@@std@@@2@$00@2@$00@std@@QAEAAU?$less@D@2@XZ
	?_Get_first@?$_Compressed_pair@U?$less@D@std@@V?$_Compressed_pair@V?$allocator@U?$_Tree_node@U?$pair@$$CBDUtile_info@map@kmint@@@std@@PAX@std@@@std@@V?$_Tree_val@U?$_Tree_simple_types@U?$pair@$$CBDUtile_info@map@kmint@@@std@@@std@@@2@$00@2@$00@std@@QBEABU?$less@D@2@XZ
	?_Get_first@?$_Compressed_pair@U?$less@V?$basic_string@DU?$char_traits@D@std@@V?$allocator@D@2@@std@@@std@@V?$_Compressed_pair@V?$allocator@U?$_Tree_node@U?$pair@$$CBV?$basic_string@DU?$char_traits@D@std@@V?$allocator@D@2@@std@@Vtexture@sdl@ui@kmint@@@std@@PAX@std@@@std@@V?$_Tree_val@U?$_Tree_simple_types@U?$pair@$$CBV?$basic_string@DU?$char_traits@D@std@@V?$allocator@D@2@@std@@Vtexture@sdl@ui@kmint@@@std@@@std@@@2@$00@2@$00@std@@QAEAAU?$less@V?$basic_string@DU?$char_traits@D@std@@V?$allocator@D@2@@std@@@2@XZ
	?_Get_first@?$_Compressed_pair@U?$less@V?$basic_string@DU?$char_traits@D@std@@V?$allocator@D@2@@std@@@std@@V?$_Compressed_pair@V?$allocator@U?$_Tree_node@U?$pair@$$CBV?$basic_string@DU?$char_traits@D@std@@V?$allocator@D@2@@std@@Vtexture@sdl@ui@kmint@@@std@@PAX@std@@@std@@V?$_Tree_val@U?$_Tree_simple_types@U?$pair@$$CBV?$basic_string@DU?$char_traits@D@std@@V?$allocator@D@2@@std@@Vtexture@sdl@ui@kmint@@@std@@@std@@@2@$00@2@$00@std@@QBEABU?$less@V?$basic_string@DU?$char_traits@D@std@@V?$allocator@D@2@@std@@@2@XZ
	?_Get_first@?$_Compressed_pair@V?$allocator@D@std@@V?$_String_val@U?$_Simple_types@D@std@@@2@$00@std@@QAEAAV?$allocator@D@2@XZ
	?_Get_first@?$_Compressed_pair@V?$allocator@D@std@@V?$_String_val@U?$_Simple_types@D@std@@@2@$00@std@@QBEABV?$allocator@D@2@XZ
	?_Get_first@?$_Compressed_pair@V?$allocator@D@std@@V?$_Vector_val@U?$_Simple_types@D@std@@@2@$00@std@@QAEAAV?$allocator@D@2@XZ
	?_Get_first@?$_Compressed_pair@V?$allocator@D@std@@V?$_Vector_val@U?$_Simple_types@D@std@@@2@$00@std@@QBEABV?$allocator@D@2@XZ
	?_Get_first@?$_Compressed_pair@V?$allocator@H@std@@V?$_Vector_val@U?$_Simple_types@H@std@@@2@$00@std@@QAEAAV?$allocator@H@2@XZ
	?_Get_first@?$_Compressed_pair@V?$allocator@H@std@@V?$_Vector_val@U?$_Simple_types@H@std@@@2@$00@std@@QBEABV?$allocator@H@2@XZ
	?_Get_first@?$_Compressed_pair@V?$allocator@PAVactor@play@kmint@@@std@@V?$_Vector_val@U?$_Simple_types@PAVactor@play@kmint@@@std@@@2@$00@std@@QAEAAV?$allocator@PAVactor@play@kmint@@@2@XZ
	?_Get_first@?$_Compressed_pair@V?$allocator@PAVactor@play@kmint@@@std@@V?$_Vector_val@U?$_Simple_types@PAVactor@play@kmint@@@std@@@2@$00@std@@QBEABV?$allocator@PAVactor@play@kmint@@@2@XZ
	?_Get_first@?$_Compressed_pair@V?$allocator@U?$_Tree_node@U?$pair@$$CBDUtile_info@map@kmint@@@std@@PAX@std@@@std@@V?$_Tree_val@U?$_Tree_simple_types@U?$pair@$$CBDUtile_info@map@kmint@@@std@@@std@@@2@$00@std@@QAEAAV?$allocator@U?$_Tree_node@U?$pair@$$CBDUtile_info@map@kmint@@@std@@PAX@std@@@2@XZ
	?_Get_first@?$_Compressed_pair@V?$allocator@U?$_Tree_node@U?$pair@$$CBDUtile_info@map@kmint@@@std@@PAX@std@@@std@@V?$_Tree_val@U?$_Tree_simple_types@U?$pair@$$CBDUtile_info@map@kmint@@@std@@@std@@@2@$00@std@@QBEABV?$allocator@U?$_Tree_node@U?$pair@$$CBDUtile_info@map@kmint@@@std@@PAX@std@@@2@XZ
	?_Get_first@?$_Compressed_pair@V?$allocator@U?$_Tree_node@U?$pair@$$CBV?$basic_string@DU?$char_traits@D@std@@V?$allocator@D@2@@std@@Vtexture@sdl@ui@kmint@@@std@@PAX@std@@@std@@V?$_Tree_val@U?$_Tree_simple_types@U?$pair@$$CBV?$basic_string@DU?$char_traits@D@std@@V?$allocator@D@2@@std@@Vtexture@sdl@ui@kmint@@@std@@@std@@@2@$00@std@@QAEAAV?$allocator@U?$_Tree_node@U?$pair@$$CBV?$basic_string@DU?$char_traits@D@std@@V?$allocator@D@2@@std@@Vtexture@sdl@ui@kmint@@@std@@PAX@std@@@2@XZ
	?_Get_first@?$_Compressed_pair@V?$allocator@U?$_Tree_node@U?$pair@$$CBV?$basic_string@DU?$char_traits@D@std@@V?$allocator@D@2@@std@@Vtexture@sdl@ui@kmint@@@std@@PAX@std@@@std@@V?$_Tree_val@U?$_Tree_simple_types@U?$pair@$$CBV?$basic_string@DU?$char_traits@D@std@@V?$allocator@D@2@@std@@Vtexture@sdl@ui@kmint@@@std@@@std@@@2@$00@std@@QBEABV?$allocator@U?$_Tree_node@U?$pair@$$CBV?$basic_string@DU?$char_traits@D@std@@V?$allocator@D@2@@std@@Vtexture@sdl@ui@kmint@@@std@@PAX@std@@@2@XZ
	?_Get_first@?$_Compressed_pair@V?$allocator@V?$unique_ptr@V?$basic_edge@Umap_node_info@map@kmint@@@graph@kmint@@U?$default_delete@V?$basic_edge@Umap_node_info@map@kmint@@@graph@kmint@@@std@@@std@@@std@@V?$_Vector_val@U?$_Simple_types@V?$unique_ptr@V?$basic_edge@Umap_node_info@map@kmint@@@graph@kmint@@U?$default_delete@V?$basic_edge@Umap_node_info@map@kmint@@@graph@kmint@@@std@@@std@@@std@@@2@$00@std@@QAEAAV?$allocator@V?$unique_ptr@V?$basic_edge@Umap_node_info@map@kmint@@@graph@kmint@@U?$default_delete@V?$basic_edge@Umap_node_info@map@kmint@@@graph@kmint@@@std@@@std@@@2@XZ
	?_Get_first@?$_Compressed_pair@V?$allocator@V?$unique_ptr@V?$basic_edge@Umap_node_info@map@kmint@@@graph@kmint@@U?$default_delete@V?$basic_edge@Umap_node_info@map@kmint@@@graph@kmint@@@std@@@std@@@std@@V?$_Vector_val@U?$_Simple_types@V?$unique_ptr@V?$basic_edge@Umap_node_info@map@kmint@@@graph@kmint@@U?$default_delete@V?$basic_edge@Umap_node_info@map@kmint@@@graph@kmint@@@std@@@std@@@std@@@2@$00@std@@QBEABV?$allocator@V?$unique_ptr@V?$basic_edge@Umap_node_info@map@kmint@@@graph@kmint@@U?$default_delete@V?$basic_edge@Umap_node_info@map@kmint@@@graph@kmint@@@std@@@std@@@2@XZ
	?_Get_first@?$_Compressed_pair@V?$allocator@V?$unique_ptr@V?$basic_edge@Uno_node_info@graph@kmint@@@graph@kmint@@U?$default_delete@V?$basic_edge@Uno_node_info@graph@kmint@@@graph@kmint@@@std@@@std@@@std@@V?$_Vector_val@U?$_Simple_types@V?$unique_ptr@V?$basic_edge@Uno_node_info@graph@kmint@@@graph@kmint@@U?$default_delete@V?$basic_edge@Uno_node_info@graph@kmint@@@graph@kmint@@@std@@@std@@@std@@@2@$00@std@@QAEAAV?$allocator@V?$unique_ptr@V?$basic_edge@Uno_node_info@graph@kmint@@@graph@kmint@@U?$default_delete@V?$basic_edge@Uno_node_info@graph@kmint@@@graph@kmint@@@std@@@std@@@2@XZ
	?_Get_first@?$_Compressed_pair@V?$allocator@V?$unique_ptr@V?$basic_edge@Uno_node_info@graph@kmint@@@graph@kmint@@U?$default_delete@V?$basic_edge@Uno_node_info@graph@kmint@@@graph@kmint@@@std@@@std@@@std@@V?$_Vector_val@U?$_Simple_types@V?$unique_ptr@V?$basic_edge@Uno_node_info@graph@kmint@@@graph@kmint@@U?$default_delete@V?$basic_edge@Uno_node_info@graph@kmint@@@graph@kmint@@@std@@@std@@@std@@@2@$00@std@@QBEABV?$allocator@V?$unique_ptr@V?$basic_edge@Uno_node_info@graph@kmint@@@graph@kmint@@U?$default_delete@V?$basic_edge@Uno_node_info@graph@kmint@@@graph@kmint@@@std@@@std@@@2@XZ
	?_Get_first@?$_Compressed_pair@V?$allocator@V?$unique_ptr@V?$basic_node@Umap_node_info@map@kmint@@@graph@kmint@@U?$default_delete@V?$basic_node@Umap_node_info@map@kmint@@@graph@kmint@@@std@@@std@@@std@@V?$_Vector_val@U?$_Simple_types@V?$unique_ptr@V?$basic_node@Umap_node_info@map@kmint@@@graph@kmint@@U?$default_delete@V?$basic_node@Umap_node_info@map@kmint@@@graph@kmint@@@std@@@std@@@std@@@2@$00@std@@QAEAAV?$allocator@V?$unique_ptr@V?$basic_node@Umap_node_info@map@kmint@@@graph@kmint@@U?$default_delete@V?$basic_node@Umap_node_info@map@kmint@@@graph@kmint@@@std@@@std@@@2@XZ
	?_Get_first@?$_Compressed_pair@V?$allocator@V?$unique_ptr@V?$basic_node@Umap_node_info@map@kmint@@@graph@kmint@@U?$default_delete@V?$basic_node@Umap_node_info@map@kmint@@@graph@kmint@@@std@@@std@@@std@@V?$_Vector_val@U?$_Simple_types@V?$unique_ptr@V?$basic_node@Umap_node_info@map@kmint@@@graph@kmint@@U?$default_delete@V?$basic_node@Umap_node_info@map@kmint@@@graph@kmint@@@std@@@std@@@std@@@2@$00@std@@QBEABV?$allocator@V?$unique_ptr@V?$basic_node@Umap_node_info@map@kmint@@@graph@kmint@@U?$default_delete@V?$basic_node@Umap_node_info@map@kmint@@@graph@kmint@@@std@@@std@@@2@XZ
	?_Get_first@?$_Compressed_pair@V?$allocator@V?$unique_ptr@V?$basic_node@Uno_node_info@graph@kmint@@@graph@kmint@@U?$default_delete@V?$basic_node@Uno_node_info@graph@kmint@@@graph@kmint@@@std@@@std@@@std@@V?$_Vector_val@U?$_Simple_types@V?$unique_ptr@V?$basic_node@Uno_node_info@graph@kmint@@@graph@kmint@@U?$default_delete@V?$basic_node@Uno_node_info@graph@kmint@@@graph@kmint@@@std@@@std@@@std@@@2@$00@std@@QAEAAV?$allocator@V?$unique_ptr@V?$basic_node@Uno_node_info@graph@kmint@@@graph@kmint@@U?$default_delete@V?$basic_node@Uno_node_info@graph@kmint@@@graph@kmint@@@std@@@std@@@2@XZ
	?_Get_first@?$_Compressed_pair@V?$allocator@V?$unique_ptr@V?$basic_node@Uno_node_info@graph@kmint@@@graph@kmint@@U?$default_delete@V?$basic_node@Uno_node_info@graph@kmint@@@graph@kmint@@@std@@@std@@@std@@V?$_Vector_val@U?$_Simple_types@V?$unique_ptr@V?$basic_node@Uno_node_info@graph@kmint@@@graph@kmint@@U?$default_delete@V?$basic_node@Uno_node_info@graph@kmint@@@graph@kmint@@@std@@@std@@@std@@@2@$00@std@@QBEABV?$allocator@V?$unique_ptr@V?$basic_node@Uno_node_info@graph@kmint@@@graph@kmint@@U?$default_delete@V?$basic_node@Uno_node_info@graph@kmint@@@graph@kmint@@@std@@@std@@@2@XZ
	?_Get_first@?$_Compressed_pair@V?$allocator@V?$unique_ptr@Vactor@play@kmint@@U?$default_delete@Vactor@play@kmint@@@std@@@std@@@std@@V?$_Vector_val@U?$_Simple_types@V?$unique_ptr@Vactor@play@kmint@@U?$default_delete@Vactor@play@kmint@@@std@@@std@@@std@@@2@$00@std@@QAEAAV?$allocator@V?$unique_ptr@Vactor@play@kmint@@U?$default_delete@Vactor@play@kmint@@@std@@@std@@@2@XZ
	?_Get_first@?$_Compressed_pair@V?$destroyer@USDL_Renderer@@@sdl@ui@kmint@@PAUSDL_Renderer@@$00@std@@QAEAAV?$destroyer@USDL_Renderer@@@sdl@ui@kmint@@XZ
	?_Get_first@?$_Compressed_pair@V?$destroyer@USDL_Surface@@@sdl@ui@kmint@@PAUSDL_Surface@@$00@std@@QAEAAV?$destroyer@USDL_Surface@@@sdl@ui@kmint@@XZ
	?_Get_first@?$_Compressed_pair@V?$destroyer@USDL_Texture@@@sdl@ui@kmint@@PAUSDL_Texture@@$00@std@@QAEAAV?$destroyer@USDL_Texture@@@sdl@ui@kmint@@XZ
	?_Get_first@?$_Compressed_pair@V?$destroyer@USDL_Window@@@sdl@ui@kmint@@PAUSDL_Window@@$00@std@@QAEAAV?$destroyer@USDL_Window@@@sdl@ui@kmint@@XZ
	?_Get_second@?$_Compressed_pair@U?$default_delete@Uimpl@frame@ui@kmint@@@std@@PAUimpl@frame@ui@kmint@@$00@std@@QAEAAPAUimpl@frame@ui@kmint@@XZ
	?_Get_second@?$_Compressed_pair@U?$default_delete@Uimpl@frame@ui@kmint@@@std@@PAUimpl@frame@ui@kmint@@$00@std@@QBEABQAUimpl@frame@ui@kmint@@XZ
	?_Get_second@?$_Compressed_pair@U?$default_delete@V?$basic_edge@Umap_node_info@map@kmint@@@graph@kmint@@@std@@PAV?$basic_edge@Umap_node_info@map@kmint@@@graph@kmint@@$00@std@@QAEAAPAV?$basic_edge@Umap_node_info@map@kmint@@@graph@kmint@@XZ
	?_Get_second@?$_Compressed_pair@U?$default_delete@V?$basic_edge@Umap_node_info@map@kmint@@@graph@kmint@@@std@@PAV?$basic_edge@Umap_node_info@map@kmint@@@graph@kmint@@$00@std@@QBEABQAV?$basic_edge@Umap_node_info@map@kmint@@@graph@kmint@@XZ
	?_Get_second@?$_Compressed_pair@U?$default_delete@V?$basic_edge@Uno_node_info@graph@kmint@@@graph@kmint@@@std@@PAV?$basic_edge@Uno_node_info@graph@kmint@@@graph@kmint@@$00@std@@QAEAAPAV?$basic_edge@Uno_node_info@graph@kmint@@@graph@kmint@@XZ
	?_Get_second@?$_Compressed_pair@U?$default_delete@V?$basic_edge@Uno_node_info@graph@kmint@@@graph@kmint@@@std@@PAV?$basic_edge@Uno_node_info@graph@kmint@@@graph@kmint@@$00@std@@QBEABQAV?$basic_edge@Uno_node_info@graph@kmint@@@graph@kmint@@XZ
	?_Get_second@?$_Compressed_pair@U?$default_delete@V?$basic_node@Umap_node_info@map@kmint@@@graph@kmint@@@std@@PAV?$basic_node@Umap_node_info@map@kmint@@@graph@kmint@@$00@std@@QAEAAPAV?$basic_node@Umap_node_info@map@kmint@@@graph@kmint@@XZ
	?_Get_second@?$_Compressed_pair@U?$default_delete@V?$basic_node@Umap_node_info@map@kmint@@@graph@kmint@@@std@@PAV?$basic_node@Umap_node_info@map@kmint@@@graph@kmint@@$00@std@@QBEABQAV?$basic_node@Umap_node_info@map@kmint@@@graph@kmint@@XZ
	?_Get_second@?$_Compressed_pair@U?$default_delete@V?$basic_node@Uno_node_info@graph@kmint@@@graph@kmint@@@std@@PAV?$basic_node@Uno_node_info@graph@kmint@@@graph@kmint@@$00@std@@QAEAAPAV?$basic_node@Uno_node_info@graph@kmint@@@graph@kmint@@XZ
	?_Get_second@?$_Compressed_pair@U?$default_delete@V?$basic_node@Uno_node_info@graph@kmint@@@graph@kmint@@@std@@PAV?$basic_node@Uno_node_info@graph@kmint@@@graph@kmint@@$00@std@@QBEABQAV?$basic_node@Uno_node_info@graph@kmint@@@graph@kmint@@XZ
	?_Get_second@?$_Compressed_pair@U?$default_delete@V_Facet_base@std@@@std@@PAV_Facet_base@2@$00@std@@QAEAAPAV_Facet_base@2@XZ
	?_Get_second@?$_Compressed_pair@U?$default_delete@V_Facet_base@std@@@std@@PAV_Facet_base@2@$00@std@@QBEABQAV_Facet_base@2@XZ
	?_Get_second@?$_Compressed_pair@U?$default_delete@Vactor@play@kmint@@@std@@PAVactor@play@kmint@@$00@std@@QAEAAPAVactor@play@kmint@@XZ
	?_Get_second@?$_Compressed_pair@U?$default_delete@Vactor@play@kmint@@@std@@PAVactor@play@kmint@@$00@std@@QBEABQAVactor@play@kmint@@XZ
	?_Get_second@?$_Compressed_pair@U?$default_delete@Vimpl@app@ui@kmint@@@std@@PAVimpl@app@ui@kmint@@$00@std@@QAEAAPAVimpl@app@ui@kmint@@XZ
	?_Get_second@?$_Compressed_pair@U?$default_delete@Vimpl@app@ui@kmint@@@std@@PAVimpl@app@ui@kmint@@$00@std@@QBEABQAVimpl@app@ui@kmint@@XZ
	?_Get_second@?$_Compressed_pair@U?$default_delete@Vimpl@window@ui@kmint@@@std@@PAVimpl@window@ui@kmint@@$00@std@@QAEAAPAVimpl@window@ui@kmint@@XZ
	?_Get_second@?$_Compressed_pair@U?$default_delete@Vimpl@window@ui@kmint@@@std@@PAVimpl@window@ui@kmint@@$00@std@@QBEABQAVimpl@window@ui@kmint@@XZ
	?_Get_second@?$_Compressed_pair@U?$less@D@std@@V?$_Compressed_pair@V?$allocator@U?$_Tree_node@U?$pair@$$CBDUtile_info@map@kmint@@@std@@PAX@std@@@std@@V?$_Tree_val@U?$_Tree_simple_types@U?$pair@$$CBDUtile_info@map@kmint@@@std@@@std@@@2@$00@2@$00@std@@QAEAAV?$_Compressed_pair@V?$allocator@U?$_Tree_node@U?$pair@$$CBDUtile_info@map@kmint@@@std@@PAX@std@@@std@@V?$_Tree_val@U?$_Tree_simple_types@U?$pair@$$CBDUtile_info@map@kmint@@@std@@@std@@@2@$00@2@XZ
	?_Get_second@?$_Compressed_pair@U?$less@D@std@@V?$_Compressed_pair@V?$allocator@U?$_Tree_node@U?$pair@$$CBDUtile_info@map@kmint@@@std@@PAX@std@@@std@@V?$_Tree_val@U?$_Tree_simple_types@U?$pair@$$CBDUtile_info@map@kmint@@@std@@@std@@@2@$00@2@$00@std@@QBEABV?$_Compressed_pair@V?$allocator@U?$_Tree_node@U?$pair@$$CBDUtile_info@map@kmint@@@std@@PAX@std@@@std@@V?$_Tree_val@U?$_Tree_simple_types@U?$pair@$$CBDUtile_info@map@kmint@@@std@@@std@@@2@$00@2@XZ
	?_Get_second@?$_Compressed_pair@U?$less@V?$basic_string@DU?$char_traits@D@std@@V?$allocator@D@2@@std@@@std@@V?$_Compressed_pair@V?$allocator@U?$_Tree_node@U?$pair@$$CBV?$basic_string@DU?$char_traits@D@std@@V?$allocator@D@2@@std@@Vtexture@sdl@ui@kmint@@@std@@PAX@std@@@std@@V?$_Tree_val@U?$_Tree_simple_types@U?$pair@$$CBV?$basic_string@DU?$char_traits@D@std@@V?$allocator@D@2@@std@@Vtexture@sdl@ui@kmint@@@std@@@std@@@2@$00@2@$00@std@@QAEAAV?$_Compressed_pair@V?$allocator@U?$_Tree_node@U?$pair@$$CBV?$basic_string@DU?$char_traits@D@std@@V?$allocator@D@2@@std@@Vtexture@sdl@ui@kmint@@@std@@PAX@std@@@std@@V?$_Tree_val@U?$_Tree_simple_types@U?$pair@$$CBV?$basic_string@DU?$char_traits@D@std@@V?$allocator@D@2@@std@@Vtexture@sdl@ui@kmint@@@std@@@std@@@2@$00@2@XZ
	?_Get_second@?$_Compressed_pair@U?$less@V?$basic_string@DU?$char_traits@D@std@@V?$allocator@D@2@@std@@@std@@V?$_Compressed_pair@V?$allocator@U?$_Tree_node@U?$pair@$$CBV?$basic_string@DU?$char_traits@D@std@@V?$allocator@D@2@@std@@Vtexture@sdl@ui@kmint@@@std@@PAX@std@@@std@@V?$_Tree_val@U?$_Tree_simple_types@U?$pair@$$CBV?$basic_string@DU?$char_traits@D@std@@V?$allocator@D@2@@std@@Vtexture@sdl@ui@kmint@@@std@@@std@@@2@$00@2@$00@std@@QBEABV?$_Compressed_pair@V?$allocator@U?$_Tree_node@U?$pair@$$CBV?$basic_string@DU?$char_traits@D@std@@V?$allocator@D@2@@std@@Vtexture@sdl@ui@kmint@@@std@@PAX@std@@@std@@V?$_Tree_val@U?$_Tree_simple_types@U?$pair@$$CBV?$basic_string@DU?$char_traits@D@std@@V?$allocator@D@2@@std@@Vtexture@sdl@ui@kmint@@@std@@@std@@@2@$00@2@XZ
	?_Get_second@?$_Compressed_pair@V?$allocator@D@std@@V?$_String_val@U?$_Simple_types@D@std@@@2@$00@std@@QAEAAV?$_String_val@U?$_Simple_types@D@std@@@2@XZ
	?_Get_second@?$_Compressed_pair@V?$allocator@D@std@@V?$_String_val@U?$_Simple_types@D@std@@@2@$00@std@@QBEABV?$_String_val@U?$_Simple_types@D@std@@@2@XZ
	?_Get_second@?$_Compressed_pair@V?$allocator@D@std@@V?$_Vector_val@U?$_Simple_types@D@std@@@2@$00@std@@QAEAAV?$_Vector_val@U?$_Simple_types@D@std@@@2@XZ
	?_Get_second@?$_Compressed_pair@V?$allocator@D@std@@V?$_Vector_val@U?$_Simple_types@D@std@@@2@$00@std@@QBEABV?$_Vector_val@U?$_Simple_types@D@std@@@2@XZ
	?_Get_second@?$_Compressed_pair@V?$allocator@H@std@@V?$_Vector_val@U?$_Simple_types@H@std@@@2@$00@std@@QAEAAV?$_Vector_val@U?$_Simple_types@H@std@@@2@XZ
	?_Get_second@?$_Compressed_pair@V?$allocator@H@std@@V?$_Vector_val@U?$_Simple_types@H@std@@@2@$00@std@@QBEABV?$_Vector_val@U?$_Simple_types@H@std@@@2@XZ
	?_Get_second@?$_Compressed_pair@V?$allocator@PAVactor@play@kmint@@@std@@V?$_Vector_val@U?$_Simple_types@PAVactor@play@kmint@@@std@@@2@$00@std@@QAEAAV?$_Vector_val@U?$_Simple_types@PAVactor@play@kmint@@@std@@@2@XZ
	?_Get_second@?$_Compressed_pair@V?$allocator@PAVactor@play@kmint@@@std@@V?$_Vector_val@U?$_Simple_types@PAVactor@play@kmint@@@std@@@2@$00@std@@QBEABV?$_Vector_val@U?$_Simple_types@PAVactor@play@kmint@@@std@@@2@XZ
	?_Get_second@?$_Compressed_pair@V?$allocator@U?$_Tree_node@U?$pair@$$CBDUtile_info@map@kmint@@@std@@PAX@std@@@std@@V?$_Tree_val@U?$_Tree_simple_types@U?$pair@$$CBDUtile_info@map@kmint@@@std@@@std@@@2@$00@std@@QAEAAV?$_Tree_val@U?$_Tree_simple_types@U?$pair@$$CBDUtile_info@map@kmint@@@std@@@std@@@2@XZ
	?_Get_second@?$_Compressed_pair@V?$allocator@U?$_Tree_node@U?$pair@$$CBDUtile_info@map@kmint@@@std@@PAX@std@@@std@@V?$_Tree_val@U?$_Tree_simple_types@U?$pair@$$CBDUtile_info@map@kmint@@@std@@@std@@@2@$00@std@@QBEABV?$_Tree_val@U?$_Tree_simple_types@U?$pair@$$CBDUtile_info@map@kmint@@@std@@@std@@@2@XZ
	?_Get_second@?$_Compressed_pair@V?$allocator@U?$_Tree_node@U?$pair@$$CBV?$basic_string@DU?$char_traits@D@std@@V?$allocator@D@2@@std@@Vtexture@sdl@ui@kmint@@@std@@PAX@std@@@std@@V?$_Tree_val@U?$_Tree_simple_types@U?$pair@$$CBV?$basic_string@DU?$char_traits@D@std@@V?$allocator@D@2@@std@@Vtexture@sdl@ui@kmint@@@std@@@std@@@2@$00@std@@QAEAAV?$_Tree_val@U?$_Tree_simple_types@U?$pair@$$CBV?$basic_string@DU?$char_traits@D@std@@V?$allocator@D@2@@std@@Vtexture@sdl@ui@kmint@@@std@@@std@@@2@XZ
	?_Get_second@?$_Compressed_pair@V?$allocator@U?$_Tree_node@U?$pair@$$CBV?$basic_string@DU?$char_traits@D@std@@V?$allocator@D@2@@std@@Vtexture@sdl@ui@kmint@@@std@@PAX@std@@@std@@V?$_Tree_val@U?$_Tree_simple_types@U?$pair@$$CBV?$basic_string@DU?$char_traits@D@std@@V?$allocator@D@2@@std@@Vtexture@sdl@ui@kmint@@@std@@@std@@@2@$00@std@@QBEABV?$_Tree_val@U?$_Tree_simple_types@U?$pair@$$CBV?$basic_string@DU?$char_traits@D@std@@V?$allocator@D@2@@std@@Vtexture@sdl@ui@kmint@@@std@@@std@@@2@XZ
	?_Get_second@?$_Compressed_pair@V?$allocator@V?$unique_ptr@V?$basic_edge@Umap_node_info@map@kmint@@@graph@kmint@@U?$default_delete@V?$basic_edge@Umap_node_info@map@kmint@@@graph@kmint@@@std@@@std@@@std@@V?$_Vector_val@U?$_Simple_types@V?$unique_ptr@V?$basic_edge@Umap_node_info@map@kmint@@@graph@kmint@@U?$default_delete@V?$basic_edge@Umap_node_info@map@kmint@@@graph@kmint@@@std@@@std@@@std@@@2@$00@std@@QAEAAV?$_Vector_val@U?$_Simple_types@V?$unique_ptr@V?$basic_edge@Umap_node_info@map@kmint@@@graph@kmint@@U?$default_delete@V?$basic_edge@Umap_node_info@map@kmint@@@graph@kmint@@@std@@@std@@@std@@@2@XZ
	?_Get_second@?$_Compressed_pair@V?$allocator@V?$unique_ptr@V?$basic_edge@Umap_node_info@map@kmint@@@graph@kmint@@U?$default_delete@V?$basic_edge@Umap_node_info@map@kmint@@@graph@kmint@@@std@@@std@@@std@@V?$_Vector_val@U?$_Simple_types@V?$unique_ptr@V?$basic_edge@Umap_node_info@map@kmint@@@graph@kmint@@U?$default_delete@V?$basic_edge@Umap_node_info@map@kmint@@@graph@kmint@@@std@@@std@@@std@@@2@$00@std@@QBEABV?$_Vector_val@U?$_Simple_types@V?$unique_ptr@V?$basic_edge@Umap_node_info@map@kmint@@@graph@kmint@@U?$default_delete@V?$basic_edge@Umap_node_info@map@kmint@@@graph@kmint@@@std@@@std@@@std@@@2@XZ
	?_Get_second@?$_Compressed_pair@V?$allocator@V?$unique_ptr@V?$basic_edge@Uno_node_info@graph@kmint@@@graph@kmint@@U?$default_delete@V?$basic_edge@Uno_node_info@graph@kmint@@@graph@kmint@@@std@@@std@@@std@@V?$_Vector_val@U?$_Simple_types@V?$unique_ptr@V?$basic_edge@Uno_node_info@graph@kmint@@@graph@kmint@@U?$default_delete@V?$basic_edge@Uno_node_info@graph@kmint@@@graph@kmint@@@std@@@std@@@std@@@2@$00@std@@QAEAAV?$_Vector_val@U?$_Simple_types@V?$unique_ptr@V?$basic_edge@Uno_node_info@graph@kmint@@@graph@kmint@@U?$default_delete@V?$basic_edge@Uno_node_info@graph@kmint@@@graph@kmint@@@std@@@std@@@std@@@2@XZ
	?_Get_second@?$_Compressed_pair@V?$allocator@V?$unique_ptr@V?$basic_edge@Uno_node_info@graph@kmint@@@graph@kmint@@U?$default_delete@V?$basic_edge@Uno_node_info@graph@kmint@@@graph@kmint@@@std@@@std@@@std@@V?$_Vector_val@U?$_Simple_types@V?$unique_ptr@V?$basic_edge@Uno_node_info@graph@kmint@@@graph@kmint@@U?$default_delete@V?$basic_edge@Uno_node_info@graph@kmint@@@graph@kmint@@@std@@@std@@@std@@@2@$00@std@@QBEABV?$_Vector_val@U?$_Simple_types@V?$unique_ptr@V?$basic_edge@Uno_node_info@graph@kmint@@@graph@kmint@@U?$default_delete@V?$basic_edge@Uno_node_info@graph@kmint@@@graph@kmint@@@std@@@std@@@std@@@2@XZ
	?_Get_second@?$_Compressed_pair@V?$allocator@V?$unique_ptr@V?$basic_node@Umap_node_info@map@kmint@@@graph@kmint@@U?$default_delete@V?$basic_node@Umap_node_info@map@kmint@@@graph@kmint@@@std@@@std@@@std@@V?$_Vector_val@U?$_Simple_types@V?$unique_ptr@V?$basic_node@Umap_node_info@map@kmint@@@graph@kmint@@U?$default_delete@V?$basic_node@Umap_node_info@map@kmint@@@graph@kmint@@@std@@@std@@@std@@@2@$00@std@@QAEAAV?$_Vector_val@U?$_Simple_types@V?$unique_ptr@V?$basic_node@Umap_node_info@map@kmint@@@graph@kmint@@U?$default_delete@V?$basic_node@Umap_node_info@map@kmint@@@graph@kmint@@@std@@@std@@@std@@@2@XZ
	?_Get_second@?$_Compressed_pair@V?$allocator@V?$unique_ptr@V?$basic_node@Umap_node_info@map@kmint@@@graph@kmint@@U?$default_delete@V?$basic_node@Umap_node_info@map@kmint@@@graph@kmint@@@std@@@std@@@std@@V?$_Vector_val@U?$_Simple_types@V?$unique_ptr@V?$basic_node@Umap_node_info@map@kmint@@@graph@kmint@@U?$default_delete@V?$basic_node@Umap_node_info@map@kmint@@@graph@kmint@@@std@@@std@@@std@@@2@$00@std@@QBEABV?$_Vector_val@U?$_Simple_types@V?$unique_ptr@V?$basic_node@Umap_node_info@map@kmint@@@graph@kmint@@U?$default_delete@V?$basic_node@Umap_node_info@map@kmint@@@graph@kmint@@@std@@@std@@@std@@@2@XZ
	?_Get_second@?$_Compressed_pair@V?$allocator@V?$unique_ptr@V?$basic_node@Uno_node_info@graph@kmint@@@graph@kmint@@U?$default_delete@V?$basic_node@Uno_node_info@graph@kmint@@@graph@kmint@@@std@@@std@@@std@@V?$_Vector_val@U?$_Simple_types@V?$unique_ptr@V?$basic_node@Uno_node_info@graph@kmint@@@graph@kmint@@U?$default_delete@V?$basic_node@Uno_node_info@graph@kmint@@@graph@kmint@@@std@@@std@@@std@@@2@$00@std@@QAEAAV?$_Vector_val@U?$_Simple_types@V?$unique_ptr@V?$basic_node@Uno_node_info@graph@kmint@@@graph@kmint@@U?$default_delete@V?$basic_node@Uno_node_info@graph@kmint@@@graph@kmint@@@std@@@std@@@std@@@2@XZ
	?_Get_second@?$_Compressed_pair@V?$allocator@V?$unique_ptr@V?$basic_node@Uno_node_info@graph@kmint@@@graph@kmint@@U?$default_delete@V?$basic_node@Uno_node_info@graph@kmint@@@graph@kmint@@@std@@@std@@@std@@V?$_Vector_val@U?$_Simple_types@V?$unique_ptr@V?$basic_node@Uno_node_info@graph@kmint@@@graph@kmint@@U?$default_delete@V?$basic_node@Uno_node_info@graph@kmint@@@graph@kmint@@@std@@@std@@@std@@@2@$00@std@@QBEABV?$_Vector_val@U?$_Simple_types@V?$unique_ptr@V?$basic_node@Uno_node_info@graph@kmint@@@graph@kmint@@U?$default_delete@V?$basic_node@Uno_node_info@graph@kmint@@@graph@kmint@@@std@@@std@@@std@@@2@XZ
	?_Get_second@?$_Compressed_pair@V?$allocator@V?$unique_ptr@Vactor@play@kmint@@U?$default_delete@Vactor@play@kmint@@@std@@@std@@@std@@V?$_Vector_val@U?$_Simple_types@V?$unique_ptr@Vactor@play@kmint@@U?$default_delete@Vactor@play@kmint@@@std@@@std@@@std@@@2@$00@std@@QAEAAV?$_Vector_val@U?$_Simple_types@V?$unique_ptr@Vactor@play@kmint@@U?$default_delete@Vactor@play@kmint@@@std@@@std@@@std@@@2@XZ
	?_Get_second@?$_Compressed_pair@V?$allocator@V?$unique_ptr@Vactor@play@kmint@@U?$default_delete@Vactor@play@kmint@@@std@@@std@@@std@@V?$_Vector_val@U?$_Simple_types@V?$unique_ptr@Vactor@play@kmint@@U?$default_delete@Vactor@play@kmint@@@std@@@std@@@std@@@2@$00@std@@QBEABV?$_Vector_val@U?$_Simple_types@V?$unique_ptr@Vactor@play@kmint@@U?$default_delete@Vactor@play@kmint@@@std@@@std@@@std@@@2@XZ
	?_Get_second@?$_Compressed_pair@V?$destroyer@USDL_Renderer@@@sdl@ui@kmint@@PAUSDL_Renderer@@$00@std@@QBEABQAUSDL_Renderer@@XZ
	?_Get_second@?$_Compressed_pair@V?$destroyer@USDL_Surface@@@sdl@ui@kmint@@PAUSDL_Surface@@$00@std@@QBEABQAUSDL_Surface@@XZ
	?_Get_second@?$_Compressed_pair@V?$destroyer@USDL_Texture@@@sdl@ui@kmint@@PAUSDL_Texture@@$00@std@@QAEAAPAUSDL_Texture@@XZ
	?_Get_second@?$_Compressed_pair@V?$destroyer@USDL_Texture@@@sdl@ui@kmint@@PAUSDL_Texture@@$00@std@@QBEABQAUSDL_Texture@@XZ
	?_Get_second@?$_Compressed_pair@V?$destroyer@USDL_Window@@@sdl@ui@kmint@@PAUSDL_Window@@$00@std@@QBEABQAUSDL_Window@@XZ
	?_Getal@?$_String_alloc@U?$_String_base_types@DV?$allocator@D@std@@@std@@@std@@QAEAAV?$allocator@D@2@XZ
	?_Getal@?$_String_alloc@U?$_String_base_types@DV?$allocator@D@std@@@std@@@std@@QBEABV?$allocator@D@2@XZ
	?_Getal@?$_Tree_comp_alloc@V?$_Tmap_traits@DUtile_info@map@kmint@@U?$less@D@std@@V?$allocator@U?$pair@$$CBDUtile_info@map@kmint@@@std@@@5@$0A@@std@@@std@@QAEAAV?$allocator@U?$_Tree_node@U?$pair@$$CBDUtile_info@map@kmint@@@std@@PAX@std@@@2@XZ
	?_Getal@?$_Tree_comp_alloc@V?$_Tmap_traits@DUtile_info@map@kmint@@U?$less@D@std@@V?$allocator@U?$pair@$$CBDUtile_info@map@kmint@@@std@@@5@$0A@@std@@@std@@QBEABV?$allocator@U?$_Tree_node@U?$pair@$$CBDUtile_info@map@kmint@@@std@@PAX@std@@@2@XZ
	?_Getal@?$_Tree_comp_alloc@V?$_Tmap_traits@V?$basic_string@DU?$char_traits@D@std@@V?$allocator@D@2@@std@@Vtexture@sdl@ui@kmint@@U?$less@V?$basic_string@DU?$char_traits@D@std@@V?$allocator@D@2@@std@@@2@V?$allocator@U?$pair@$$CBV?$basic_string@DU?$char_traits@D@std@@V?$allocator@D@2@@std@@Vtexture@sdl@ui@kmint@@@std@@@2@$0A@@std@@@std@@QAEAAV?$allocator@U?$_Tree_node@U?$pair@$$CBV?$basic_string@DU?$char_traits@D@std@@V?$allocator@D@2@@std@@Vtexture@sdl@ui@kmint@@@std@@PAX@std@@@2@XZ
	?_Getal@?$_Tree_comp_alloc@V?$_Tmap_traits@V?$basic_string@DU?$char_traits@D@std@@V?$allocator@D@2@@std@@Vtexture@sdl@ui@kmint@@U?$less@V?$basic_string@DU?$char_traits@D@std@@V?$allocator@D@2@@std@@@2@V?$allocator@U?$pair@$$CBV?$basic_string@DU?$char_traits@D@std@@V?$allocator@D@2@@std@@Vtexture@sdl@ui@kmint@@@std@@@2@$0A@@std@@@std@@QBEABV?$allocator@U?$_Tree_node@U?$pair@$$CBV?$basic_string@DU?$char_traits@D@std@@V?$allocator@D@2@@std@@Vtexture@sdl@ui@kmint@@@std@@PAX@std@@@2@XZ
	?_Getal@?$_Vector_alloc@U?$_Vec_base_types@DV?$allocator@D@std@@@std@@@std@@QAEAAV?$allocator@D@2@XZ
	?_Getal@?$_Vector_alloc@U?$_Vec_base_types@DV?$allocator@D@std@@@std@@@std@@QBEABV?$allocator@D@2@XZ
	?_Getal@?$_Vector_alloc@U?$_Vec_base_types@HV?$allocator@H@std@@@std@@@std@@QAEAAV?$allocator@H@2@XZ
	?_Getal@?$_Vector_alloc@U?$_Vec_base_types@HV?$allocator@H@std@@@std@@@std@@QBEABV?$allocator@H@2@XZ
	?_Getal@?$_Vector_alloc@U?$_Vec_base_types@PAVactor@play@kmint@@V?$allocator@PAVactor@play@kmint@@@std@@@std@@@std@@QAEAAV?$allocator@PAVactor@play@kmint@@@2@XZ
	?_Getal@?$_Vector_alloc@U?$_Vec_base_types@PAVactor@play@kmint@@V?$allocator@PAVactor@play@kmint@@@std@@@std@@@std@@QBEABV?$allocator@PAVactor@play@kmint@@@2@XZ
	?_Getal@?$_Vector_alloc@U?$_Vec_base_types@V?$unique_ptr@V?$basic_edge@Umap_node_info@map@kmint@@@graph@kmint@@U?$default_delete@V?$basic_edge@Umap_node_info@map@kmint@@@graph@kmint@@@std@@@std@@V?$allocator@V?$unique_ptr@V?$basic_edge@Umap_node_info@map@kmint@@@graph@kmint@@U?$default_delete@V?$basic_edge@Umap_node_info@map@kmint@@@graph@kmint@@@std@@@std@@@2@@std@@@std@@QAEAAV?$allocator@V?$unique_ptr@V?$basic_edge@Umap_node_info@map@kmint@@@graph@kmint@@U?$default_delete@V?$basic_edge@Umap_node_info@map@kmint@@@graph@kmint@@@std@@@std@@@2@XZ
	?_Getal@?$_Vector_alloc@U?$_Vec_base_types@V?$unique_ptr@V?$basic_edge@Umap_node_info@map@kmint@@@graph@kmint@@U?$default_delete@V?$basic_edge@Umap_node_info@map@kmint@@@graph@kmint@@@std@@@std@@V?$allocator@V?$unique_ptr@V?$basic_edge@Umap_node_info@map@kmint@@@graph@kmint@@U?$default_delete@V?$basic_edge@Umap_node_info@map@kmint@@@graph@kmint@@@std@@@std@@@2@@std@@@std@@QBEABV?$allocator@V?$unique_ptr@V?$basic_edge@Umap_node_info@map@kmint@@@graph@kmint@@U?$default_delete@V?$basic_edge@Umap_node_info@map@kmint@@@graph@kmint@@@std@@@std@@@2@XZ
	?_Getal@?$_Vector_alloc@U?$_Vec_base_types@V?$unique_ptr@V?$basic_edge@Uno_node_info@graph@kmint@@@graph@kmint@@U?$default_delete@V?$basic_edge@Uno_node_info@graph@kmint@@@graph@kmint@@@std@@@std@@V?$allocator@V?$unique_ptr@V?$basic_edge@Uno_node_info@graph@kmint@@@graph@kmint@@U?$default_delete@V?$basic_edge@Uno_node_info@graph@kmint@@@graph@kmint@@@std@@@std@@@2@@std@@@std@@QAEAAV?$allocator@V?$unique_ptr@V?$basic_edge@Uno_node_info@graph@kmint@@@graph@kmint@@U?$default_delete@V?$basic_edge@Uno_node_info@graph@kmint@@@graph@kmint@@@std@@@std@@@2@XZ
	?_Getal@?$_Vector_alloc@U?$_Vec_base_types@V?$unique_ptr@V?$basic_edge@Uno_node_info@graph@kmint@@@graph@kmint@@U?$default_delete@V?$basic_edge@Uno_node_info@graph@kmint@@@graph@kmint@@@std@@@std@@V?$allocator@V?$unique_ptr@V?$basic_edge@Uno_node_info@graph@kmint@@@graph@kmint@@U?$default_delete@V?$basic_edge@Uno_node_info@graph@kmint@@@graph@kmint@@@std@@@std@@@2@@std@@@std@@QBEABV?$allocator@V?$unique_ptr@V?$basic_edge@Uno_node_info@graph@kmint@@@graph@kmint@@U?$default_delete@V?$basic_edge@Uno_node_info@graph@kmint@@@graph@kmint@@@std@@@std@@@2@XZ
	?_Getal@?$_Vector_alloc@U?$_Vec_base_types@V?$unique_ptr@V?$basic_node@Umap_node_info@map@kmint@@@graph@kmint@@U?$default_delete@V?$basic_node@Umap_node_info@map@kmint@@@graph@kmint@@@std@@@std@@V?$allocator@V?$unique_ptr@V?$basic_node@Umap_node_info@map@kmint@@@graph@kmint@@U?$default_delete@V?$basic_node@Umap_node_info@map@kmint@@@graph@kmint@@@std@@@std@@@2@@std@@@std@@QAEAAV?$allocator@V?$unique_ptr@V?$basic_node@Umap_node_info@map@kmint@@@graph@kmint@@U?$default_delete@V?$basic_node@Umap_node_info@map@kmint@@@graph@kmint@@@std@@@std@@@2@XZ
	?_Getal@?$_Vector_alloc@U?$_Vec_base_types@V?$unique_ptr@V?$basic_node@Umap_node_info@map@kmint@@@graph@kmint@@U?$default_delete@V?$basic_node@Umap_node_info@map@kmint@@@graph@kmint@@@std@@@std@@V?$allocator@V?$unique_ptr@V?$basic_node@Umap_node_info@map@kmint@@@graph@kmint@@U?$default_delete@V?$basic_node@Umap_node_info@map@kmint@@@graph@kmint@@@std@@@std@@@2@@std@@@std@@QBEABV?$allocator@V?$unique_ptr@V?$basic_node@Umap_node_info@map@kmint@@@graph@kmint@@U?$default_delete@V?$basic_node@Umap_node_info@map@kmint@@@graph@kmint@@@std@@@std@@@2@XZ
	?_Getal@?$_Vector_alloc@U?$_Vec_base_types@V?$unique_ptr@V?$basic_node@Uno_node_info@graph@kmint@@@graph@kmint@@U?$default_delete@V?$basic_node@Uno_node_info@graph@kmint@@@graph@kmint@@@std@@@std@@V?$allocator@V?$unique_ptr@V?$basic_node@Uno_node_info@graph@kmint@@@graph@kmint@@U?$default_delete@V?$basic_node@Uno_node_info@graph@kmint@@@graph@kmint@@@std@@@std@@@2@@std@@@std@@QAEAAV?$allocator@V?$unique_ptr@V?$basic_node@Uno_node_info@graph@kmint@@@graph@kmint@@U?$default_delete@V?$basic_node@Uno_node_info@graph@kmint@@@graph@kmint@@@std@@@std@@@2@XZ
	?_Getal@?$_Vector_alloc@U?$_Vec_base_types@V?$unique_ptr@V?$basic_node@Uno_node_info@graph@kmint@@@graph@kmint@@U?$default_delete@V?$basic_node@Uno_node_info@graph@kmint@@@graph@kmint@@@std@@@std@@V?$allocator@V?$unique_ptr@V?$basic_node@Uno_node_info@graph@kmint@@@graph@kmint@@U?$default_delete@V?$basic_node@Uno_node_info@graph@kmint@@@graph@kmint@@@std@@@std@@@2@@std@@@std@@QBEABV?$allocator@V?$unique_ptr@V?$basic_node@Uno_node_info@graph@kmint@@@graph@kmint@@U?$default_delete@V?$basic_node@Uno_node_info@graph@kmint@@@graph@kmint@@@std@@@std@@@2@XZ
	?_Getal@?$_Vector_alloc@U?$_Vec_base_types@V?$unique_ptr@Vactor@play@kmint@@U?$default_delete@Vactor@play@kmint@@@std@@@std@@V?$allocator@V?$unique_ptr@Vactor@play@kmint@@U?$default_delete@Vactor@play@kmint@@@std@@@std@@@2@@std@@@std@@QAEAAV?$allocator@V?$unique_ptr@Vactor@play@kmint@@U?$default_delete@Vactor@play@kmint@@@std@@@std@@@2@XZ
	?_Getcomp@?$_Tree_comp_alloc@V?$_Tmap_traits@DUtile_info@map@kmint@@U?$less@D@std@@V?$allocator@U?$pair@$$CBDUtile_info@map@kmint@@@std@@@5@$0A@@std@@@std@@QAEAAU?$less@D@2@XZ
	?_Getcomp@?$_Tree_comp_alloc@V?$_Tmap_traits@DUtile_info@map@kmint@@U?$less@D@std@@V?$allocator@U?$pair@$$CBDUtile_info@map@kmint@@@std@@@5@$0A@@std@@@std@@QBEABU?$less@D@2@XZ
	?_Getcomp@?$_Tree_comp_alloc@V?$_Tmap_traits@V?$basic_string@DU?$char_traits@D@std@@V?$allocator@D@2@@std@@Vtexture@sdl@ui@kmint@@U?$less@V?$basic_string@DU?$char_traits@D@std@@V?$allocator@D@2@@std@@@2@V?$allocator@U?$pair@$$CBV?$basic_string@DU?$char_traits@D@std@@V?$allocator@D@2@@std@@Vtexture@sdl@ui@kmint@@@std@@@2@$0A@@std@@@std@@QAEAAU?$less@V?$basic_string@DU?$char_traits@D@std@@V?$allocator@D@2@@std@@@2@XZ
	?_Getcomp@?$_Tree_comp_alloc@V?$_Tmap_traits@V?$basic_string@DU?$char_traits@D@std@@V?$allocator@D@2@@std@@Vtexture@sdl@ui@kmint@@U?$less@V?$basic_string@DU?$char_traits@D@std@@V?$allocator@D@2@@std@@@2@V?$allocator@U?$pair@$$CBV?$basic_string@DU?$char_traits@D@std@@V?$allocator@D@2@@std@@Vtexture@sdl@ui@kmint@@@std@@@2@$0A@@std@@@std@@QBEABU?$less@V?$basic_string@DU?$char_traits@D@std@@V?$allocator@D@2@@std@@@2@XZ
	?_Getcont@_Iterator_base12@std@@QBEPBU_Container_base12@2@XZ
	?_Getfacet@locale@std@@QBEPBVfacet@12@I@Z
	?_Getimpl@?$_Func_class@AAVactor@play@kmint@@AAV?$unique_ptr@Vactor@play@kmint@@U?$default_delete@Vactor@play@kmint@@@std@@@std@@@std@@ABEPAV?$_Func_base@AAVactor@play@kmint@@AAV?$unique_ptr@Vactor@play@kmint@@U?$default_delete@Vactor@play@kmint@@@std@@@std@@@2@XZ
	?_Getimpl@?$_Func_class@ABVactor@play@kmint@@ABV?$unique_ptr@Vactor@play@kmint@@U?$default_delete@Vactor@play@kmint@@@std@@@std@@@std@@ABEPAV?$_Func_base@ABVactor@play@kmint@@ABV?$unique_ptr@Vactor@play@kmint@@U?$default_delete@Vactor@play@kmint@@@std@@@std@@@2@XZ
	?_Getpfirst@?$_Tree_comp_alloc@V?$_Tmap_traits@DUtile_info@map@kmint@@U?$less@D@std@@V?$allocator@U?$pair@$$CBDUtile_info@map@kmint@@@std@@@5@$0A@@std@@@std@@QBEPAPAU_Iterator_base12@2@XZ
	?_Getpfirst@?$_Tree_comp_alloc@V?$_Tmap_traits@V?$basic_string@DU?$char_traits@D@std@@V?$allocator@D@2@@std@@Vtexture@sdl@ui@kmint@@U?$less@V?$basic_string@DU?$char_traits@D@std@@V?$allocator@D@2@@std@@@2@V?$allocator@U?$pair@$$CBV?$basic_string@DU?$char_traits@D@std@@V?$allocator@D@2@@std@@Vtexture@sdl@ui@kmint@@@std@@@2@$0A@@std@@@std@@QBEPAPAU_Iterator_base12@2@XZ
	?_Getpfirst@?$_Vector_alloc@U?$_Vec_base_types@DV?$allocator@D@std@@@std@@@std@@QBEPAPAU_Iterator_base12@2@XZ
	?_Getpfirst@?$_Vector_alloc@U?$_Vec_base_types@PAVactor@play@kmint@@V?$allocator@PAVactor@play@kmint@@@std@@@std@@@std@@QBEPAPAU_Iterator_base12@2@XZ
	?_Getpfirst@?$_Vector_alloc@U?$_Vec_base_types@V?$unique_ptr@V?$basic_edge@Umap_node_info@map@kmint@@@graph@kmint@@U?$default_delete@V?$basic_edge@Umap_node_info@map@kmint@@@graph@kmint@@@std@@@std@@V?$allocator@V?$unique_ptr@V?$basic_edge@Umap_node_info@map@kmint@@@graph@kmint@@U?$default_delete@V?$basic_edge@Umap_node_info@map@kmint@@@graph@kmint@@@std@@@std@@@2@@std@@@std@@QBEPAPAU_Iterator_base12@2@XZ
	?_Getpfirst@?$_Vector_alloc@U?$_Vec_base_types@V?$unique_ptr@V?$basic_edge@Uno_node_info@graph@kmint@@@graph@kmint@@U?$default_delete@V?$basic_edge@Uno_node_info@graph@kmint@@@graph@kmint@@@std@@@std@@V?$allocator@V?$unique_ptr@V?$basic_edge@Uno_node_info@graph@kmint@@@graph@kmint@@U?$default_delete@V?$basic_edge@Uno_node_info@graph@kmint@@@graph@kmint@@@std@@@std@@@2@@std@@@std@@QBEPAPAU_Iterator_base12@2@XZ
	?_Getpfirst@?$_Vector_alloc@U?$_Vec_base_types@V?$unique_ptr@V?$basic_node@Umap_node_info@map@kmint@@@graph@kmint@@U?$default_delete@V?$basic_node@Umap_node_info@map@kmint@@@graph@kmint@@@std@@@std@@V?$allocator@V?$unique_ptr@V?$basic_node@Umap_node_info@map@kmint@@@graph@kmint@@U?$default_delete@V?$basic_node@Umap_node_info@map@kmint@@@graph@kmint@@@std@@@std@@@2@@std@@@std@@QBEPAPAU_Iterator_base12@2@XZ
	?_Getpfirst@?$_Vector_alloc@U?$_Vec_base_types@V?$unique_ptr@V?$basic_node@Uno_node_info@graph@kmint@@@graph@kmint@@U?$default_delete@V?$basic_node@Uno_node_info@graph@kmint@@@graph@kmint@@@std@@@std@@V?$allocator@V?$unique_ptr@V?$basic_node@Uno_node_info@graph@kmint@@@graph@kmint@@U?$default_delete@V?$basic_node@Uno_node_info@graph@kmint@@@graph@kmint@@@std@@@std@@@2@@std@@@std@@QBEPAPAU_Iterator_base12@2@XZ
	?_Getpfirst@?$_Vector_alloc@U?$_Vec_base_types@V?$unique_ptr@Vactor@play@kmint@@U?$default_delete@Vactor@play@kmint@@@std@@@std@@V?$allocator@V?$unique_ptr@Vactor@play@kmint@@U?$default_delete@Vactor@play@kmint@@@std@@@std@@@2@@std@@@std@@QBEPAPAU_Iterator_base12@2@XZ
	?_Getpfirst@_Container_base12@std@@QBEPAPAU_Iterator_base12@2@XZ
	?_Getpnext@_Iterator_base12@std@@QAEPAPAU12@XZ
	?_Getspace@?$_Func_class@AAVactor@play@kmint@@AAV?$unique_ptr@Vactor@play@kmint@@U?$default_delete@Vactor@play@kmint@@@std@@@std@@@std@@AAEPAXXZ
	?_Getspace@?$_Func_class@AAVactor@play@kmint@@AAV?$unique_ptr@Vactor@play@kmint@@U?$default_delete@Vactor@play@kmint@@@std@@@std@@@std@@ABEPBXXZ
	?_Getspace@?$_Func_class@ABVactor@play@kmint@@ABV?$unique_ptr@Vactor@play@kmint@@U?$default_delete@Vactor@play@kmint@@@std@@@std@@@std@@AAEPAXXZ
	?_Getspace@?$_Func_class@ABVactor@play@kmint@@ABV?$unique_ptr@Vactor@play@kmint@@U?$default_delete@Vactor@play@kmint@@@std@@@std@@@std@@ABEPBXXZ
	?_Getstate@?$basic_stringbuf@DU?$char_traits@D@std@@V?$allocator@D@2@@std@@CAHH@Z
	?_Getval@?$istream_iterator@DDU?$char_traits@D@std@@H@std@@IAEXXZ
	?_Has_unused_capacity@?$vector@DV?$allocator@D@std@@@std@@ABE_NXZ
	?_Has_unused_capacity@?$vector@PAVactor@play@kmint@@V?$allocator@PAVactor@play@kmint@@@std@@@std@@ABE_NXZ
	?_Has_unused_capacity@?$vector@V?$unique_ptr@V?$basic_edge@Umap_node_info@map@kmint@@@graph@kmint@@U?$default_delete@V?$basic_edge@Umap_node_info@map@kmint@@@graph@kmint@@@std@@@std@@V?$allocator@V?$unique_ptr@V?$basic_edge@Umap_node_info@map@kmint@@@graph@kmint@@U?$default_delete@V?$basic_edge@Umap_node_info@map@kmint@@@graph@kmint@@@std@@@std@@@2@@std@@ABE_NXZ
	?_Has_unused_capacity@?$vector@V?$unique_ptr@V?$basic_edge@Uno_node_info@graph@kmint@@@graph@kmint@@U?$default_delete@V?$basic_edge@Uno_node_info@graph@kmint@@@graph@kmint@@@std@@@std@@V?$allocator@V?$unique_ptr@V?$basic_edge@Uno_node_info@graph@kmint@@@graph@kmint@@U?$default_delete@V?$basic_edge@Uno_node_info@graph@kmint@@@graph@kmint@@@std@@@std@@@2@@std@@ABE_NXZ
	?_Has_unused_capacity@?$vector@V?$unique_ptr@V?$basic_node@Umap_node_info@map@kmint@@@graph@kmint@@U?$default_delete@V?$basic_node@Umap_node_info@map@kmint@@@graph@kmint@@@std@@@std@@V?$allocator@V?$unique_ptr@V?$basic_node@Umap_node_info@map@kmint@@@graph@kmint@@U?$default_delete@V?$basic_node@Umap_node_info@map@kmint@@@graph@kmint@@@std@@@std@@@2@@std@@ABE_NXZ
	?_Has_unused_capacity@?$vector@V?$unique_ptr@V?$basic_node@Uno_node_info@graph@kmint@@@graph@kmint@@U?$default_delete@V?$basic_node@Uno_node_info@graph@kmint@@@graph@kmint@@@std@@@std@@V?$allocator@V?$unique_ptr@V?$basic_node@Uno_node_info@graph@kmint@@@graph@kmint@@U?$default_delete@V?$basic_node@Uno_node_info@graph@kmint@@@graph@kmint@@@std@@@std@@@2@@std@@ABE_NXZ
	?_Init@?$basic_stringbuf@DU?$char_traits@D@std@@V?$allocator@D@2@@std@@IAEXPBDIH@Z
	?_Init@param_type@?$uniform_int@H@std@@QAEXHH@Z
	?_Init@param_type@?$uniform_real@M@std@@QAEXMM@Z
	?_Key@?$_Tree@V?$_Tmap_traits@DUtile_info@map@kmint@@U?$less@D@std@@V?$allocator@U?$pair@$$CBDUtile_info@map@kmint@@@std@@@5@$0A@@std@@@std@@IBEABDPAU?$_Tree_node@U?$pair@$$CBDUtile_info@map@kmint@@@std@@PAX@2@@Z
	?_Key@?$_Tree@V?$_Tmap_traits@V?$basic_string@DU?$char_traits@D@std@@V?$allocator@D@2@@std@@Vtexture@sdl@ui@kmint@@U?$less@V?$basic_string@DU?$char_traits@D@std@@V?$allocator@D@2@@std@@@2@V?$allocator@U?$pair@$$CBV?$basic_string@DU?$char_traits@D@std@@V?$allocator@D@2@@std@@Vtexture@sdl@ui@kmint@@@std@@@2@$0A@@std@@@std@@IBEABV?$basic_string@DU?$char_traits@D@std@@V?$allocator@D@2@@2@PAU?$_Tree_node@U?$pair@$$CBV?$basic_string@DU?$char_traits@D@std@@V?$allocator@D@2@@std@@Vtexture@sdl@ui@kmint@@@std@@PAX@2@@Z
	?_Kfn@?$_Tree@V?$_Tmap_traits@DUtile_info@map@kmint@@U?$less@D@std@@V?$allocator@U?$pair@$$CBDUtile_info@map@kmint@@@std@@@5@$0A@@std@@@std@@IBEABDABU?$pair@$$CBDUtile_info@map@kmint@@@2@@Z
	?_Kfn@?$_Tree@V?$_Tmap_traits@V?$basic_string@DU?$char_traits@D@std@@V?$allocator@D@2@@std@@Vtexture@sdl@ui@kmint@@U?$less@V?$basic_string@DU?$char_traits@D@std@@V?$allocator@D@2@@std@@@2@V?$allocator@U?$pair@$$CBV?$basic_string@DU?$char_traits@D@std@@V?$allocator@D@2@@std@@Vtexture@sdl@ui@kmint@@@std@@@2@$0A@@std@@@std@@IBEABV?$basic_string@DU?$char_traits@D@std@@V?$allocator@D@2@@2@ABU?$pair@$$CBV?$basic_string@DU?$char_traits@D@std@@V?$allocator@D@2@@std@@Vtexture@sdl@ui@kmint@@@2@@Z
	?_Large_string_engaged@?$_String_val@U?$_Simple_types@D@std@@@std@@QBE_NXZ
	?_Lmost@?$_Tree_val@U?$_Tree_simple_types@U?$pair@$$CBDUtile_info@map@kmint@@@std@@@std@@@std@@QBEAAPAU?$_Tree_node@U?$pair@$$CBDUtile_info@map@kmint@@@std@@PAX@2@XZ
	?_Lmost@?$_Tree_val@U?$_Tree_simple_types@U?$pair@$$CBV?$basic_string@DU?$char_traits@D@std@@V?$allocator@D@2@@std@@Vtexture@sdl@ui@kmint@@@std@@@std@@@std@@QBEAAPAU?$_Tree_node@U?$pair@$$CBV?$basic_string@DU?$char_traits@D@std@@V?$allocator@D@2@@std@@Vtexture@sdl@ui@kmint@@@std@@PAX@2@XZ
	?_Local@?$_Func_class@AAVactor@play@kmint@@AAV?$unique_ptr@Vactor@play@kmint@@U?$default_delete@Vactor@play@kmint@@@std@@@std@@@std@@ABE_NXZ
	?_Local@?$_Func_class@ABVactor@play@kmint@@ABV?$unique_ptr@Vactor@play@kmint@@U?$default_delete@Vactor@play@kmint@@@std@@@std@@@std@@ABE_NXZ
	?_Lrotate@?$_Tree_val@U?$_Tree_simple_types@U?$pair@$$CBDUtile_info@map@kmint@@@std@@@std@@@std@@QAEXPAU?$_Tree_node@U?$pair@$$CBDUtile_info@map@kmint@@@std@@PAX@2@@Z
	?_Lrotate@?$_Tree_val@U?$_Tree_simple_types@U?$pair@$$CBV?$basic_string@DU?$char_traits@D@std@@V?$allocator@D@2@@std@@Vtexture@sdl@ui@kmint@@@std@@@std@@@std@@QAEXPAU?$_Tree_node@U?$pair@$$CBV?$basic_string@DU?$char_traits@D@std@@V?$allocator@D@2@@std@@Vtexture@sdl@ui@kmint@@@std@@PAX@2@@Z
	?_Max@?$_Tree_val@U?$_Tree_simple_types@U?$pair@$$CBDUtile_info@map@kmint@@@std@@@std@@@std@@SAPAU?$_Tree_node@U?$pair@$$CBDUtile_info@map@kmint@@@std@@PAX@2@PAU32@@Z
	?_Max@?$_Tree_val@U?$_Tree_simple_types@U?$pair@$$CBV?$basic_string@DU?$char_traits@D@std@@V?$allocator@D@2@@std@@Vtexture@sdl@ui@kmint@@@std@@@std@@@std@@SAPAU?$_Tree_node@U?$pair@$$CBV?$basic_string@DU?$char_traits@D@std@@V?$allocator@D@2@@std@@Vtexture@sdl@ui@kmint@@@std@@PAX@2@PAU32@@Z
	?_Min@?$_Tree_val@U?$_Tree_simple_types@U?$pair@$$CBDUtile_info@map@kmint@@@std@@@std@@@std@@SAPAU?$_Tree_node@U?$pair@$$CBDUtile_info@map@kmint@@@std@@PAX@2@PAU32@@Z
	?_Min@?$_Tree_val@U?$_Tree_simple_types@U?$pair@$$CBV?$basic_string@DU?$char_traits@D@std@@V?$allocator@D@2@@std@@Vtexture@sdl@ui@kmint@@@std@@@std@@@std@@SAPAU?$_Tree_node@U?$pair@$$CBV?$basic_string@DU?$char_traits@D@std@@V?$allocator@D@2@@std@@Vtexture@sdl@ui@kmint@@@std@@PAX@2@PAU32@@Z
	?_Move@?$_Func_impl_no_alloc@P6AAAVactor@play@kmint@@ABV?$unique_ptr@Vactor@play@kmint@@U?$default_delete@Vactor@play@kmint@@@std@@@std@@@ZAAV123@AAV45@@std@@EAEPAV?$_Func_base@AAVactor@play@kmint@@AAV?$unique_ptr@Vactor@play@kmint@@U?$default_delete@Vactor@play@kmint@@@std@@@std@@@2@PAX@Z
	?_Move@?$_Func_impl_no_alloc@P6AABVactor@play@kmint@@ABV?$unique_ptr@Vactor@play@kmint@@U?$default_delete@Vactor@play@kmint@@@std@@@std@@@ZABV123@ABV45@@std@@EAEPAV?$_Func_base@ABVactor@play@kmint@@ABV?$unique_ptr@Vactor@play@kmint@@U?$default_delete@Vactor@play@kmint@@@std@@@std@@@2@PAX@Z
	?_Move_alloc@?$_String_alloc@U?$_String_base_types@DV?$allocator@D@std@@@std@@@std@@QAEXAAV?$allocator@D@2@@Z
	?_Move_from@?$vector@V?$unique_ptr@V?$basic_node@Umap_node_info@map@kmint@@@graph@kmint@@U?$default_delete@V?$basic_node@Umap_node_info@map@kmint@@@graph@kmint@@@std@@@std@@V?$allocator@V?$unique_ptr@V?$basic_node@Umap_node_info@map@kmint@@@graph@kmint@@U?$default_delete@V?$basic_node@Umap_node_info@map@kmint@@@graph@kmint@@@std@@@std@@@2@@std@@AAEX$$QAV12@U?$integral_constant@_N$00@2@@Z
	?_Move_from@?$vector@V?$unique_ptr@V?$basic_node@Uno_node_info@graph@kmint@@@graph@kmint@@U?$default_delete@V?$basic_node@Uno_node_info@graph@kmint@@@graph@kmint@@@std@@@std@@V?$allocator@V?$unique_ptr@V?$basic_node@Uno_node_info@graph@kmint@@@graph@kmint@@U?$default_delete@V?$basic_node@Uno_node_info@graph@kmint@@@graph@kmint@@@std@@@std@@@2@@std@@AAEX$$QAV12@U?$integral_constant@_N$00@2@@Z
	?_Myend@?$_Vector_alloc@U?$_Vec_base_types@DV?$allocator@D@std@@@std@@@std@@QAEAAPADXZ
	?_Myend@?$_Vector_alloc@U?$_Vec_base_types@DV?$allocator@D@std@@@std@@@std@@QBEABQADXZ
	?_Myend@?$_Vector_alloc@U?$_Vec_base_types@HV?$allocator@H@std@@@std@@@std@@QAEAAPAHXZ
	?_Myend@?$_Vector_alloc@U?$_Vec_base_types@HV?$allocator@H@std@@@std@@@std@@QBEABQAHXZ
	?_Myend@?$_Vector_alloc@U?$_Vec_base_types@PAVactor@play@kmint@@V?$allocator@PAVactor@play@kmint@@@std@@@std@@@std@@QAEAAPAPAVactor@play@kmint@@XZ
	?_Myend@?$_Vector_alloc@U?$_Vec_base_types@PAVactor@play@kmint@@V?$allocator@PAVactor@play@kmint@@@std@@@std@@@std@@QBEABQAPAVactor@play@kmint@@XZ
	?_Myend@?$_Vector_alloc@U?$_Vec_base_types@V?$unique_ptr@V?$basic_edge@Umap_node_info@map@kmint@@@graph@kmint@@U?$default_delete@V?$basic_edge@Umap_node_info@map@kmint@@@graph@kmint@@@std@@@std@@V?$allocator@V?$unique_ptr@V?$basic_edge@Umap_node_info@map@kmint@@@graph@kmint@@U?$default_delete@V?$basic_edge@Umap_node_info@map@kmint@@@graph@kmint@@@std@@@std@@@2@@std@@@std@@QAEAAPAV?$unique_ptr@V?$basic_edge@Umap_node_info@map@kmint@@@graph@kmint@@U?$default_delete@V?$basic_edge@Umap_node_info@map@kmint@@@graph@kmint@@@std@@@2@XZ
	?_Myend@?$_Vector_alloc@U?$_Vec_base_types@V?$unique_ptr@V?$basic_edge@Umap_node_info@map@kmint@@@graph@kmint@@U?$default_delete@V?$basic_edge@Umap_node_info@map@kmint@@@graph@kmint@@@std@@@std@@V?$allocator@V?$unique_ptr@V?$basic_edge@Umap_node_info@map@kmint@@@graph@kmint@@U?$default_delete@V?$basic_edge@Umap_node_info@map@kmint@@@graph@kmint@@@std@@@std@@@2@@std@@@std@@QBEABQAV?$unique_ptr@V?$basic_edge@Umap_node_info@map@kmint@@@graph@kmint@@U?$default_delete@V?$basic_edge@Umap_node_info@map@kmint@@@graph@kmint@@@std@@@2@XZ
	?_Myend@?$_Vector_alloc@U?$_Vec_base_types@V?$unique_ptr@V?$basic_edge@Uno_node_info@graph@kmint@@@graph@kmint@@U?$default_delete@V?$basic_edge@Uno_node_info@graph@kmint@@@graph@kmint@@@std@@@std@@V?$allocator@V?$unique_ptr@V?$basic_edge@Uno_node_info@graph@kmint@@@graph@kmint@@U?$default_delete@V?$basic_edge@Uno_node_info@graph@kmint@@@graph@kmint@@@std@@@std@@@2@@std@@@std@@QAEAAPAV?$unique_ptr@V?$basic_edge@Uno_node_info@graph@kmint@@@graph@kmint@@U?$default_delete@V?$basic_edge@Uno_node_info@graph@kmint@@@graph@kmint@@@std@@@2@XZ
	?_Myend@?$_Vector_alloc@U?$_Vec_base_types@V?$unique_ptr@V?$basic_edge@Uno_node_info@graph@kmint@@@graph@kmint@@U?$default_delete@V?$basic_edge@Uno_node_info@graph@kmint@@@graph@kmint@@@std@@@std@@V?$allocator@V?$unique_ptr@V?$basic_edge@Uno_node_info@graph@kmint@@@graph@kmint@@U?$default_delete@V?$basic_edge@Uno_node_info@graph@kmint@@@graph@kmint@@@std@@@std@@@2@@std@@@std@@QBEABQAV?$unique_ptr@V?$basic_edge@Uno_node_info@graph@kmint@@@graph@kmint@@U?$default_delete@V?$basic_edge@Uno_node_info@graph@kmint@@@graph@kmint@@@std@@@2@XZ
	?_Myend@?$_Vector_alloc@U?$_Vec_base_types@V?$unique_ptr@V?$basic_node@Umap_node_info@map@kmint@@@graph@kmint@@U?$default_delete@V?$basic_node@Umap_node_info@map@kmint@@@graph@kmint@@@std@@@std@@V?$allocator@V?$unique_ptr@V?$basic_node@Umap_node_info@map@kmint@@@graph@kmint@@U?$default_delete@V?$basic_node@Umap_node_info@map@kmint@@@graph@kmint@@@std@@@std@@@2@@std@@@std@@QAEAAPAV?$unique_ptr@V?$basic_node@Umap_node_info@map@kmint@@@graph@kmint@@U?$default_delete@V?$basic_node@Umap_node_info@map@kmint@@@graph@kmint@@@std@@@2@XZ
	?_Myend@?$_Vector_alloc@U?$_Vec_base_types@V?$unique_ptr@V?$basic_node@Umap_node_info@map@kmint@@@graph@kmint@@U?$default_delete@V?$basic_node@Umap_node_info@map@kmint@@@graph@kmint@@@std@@@std@@V?$allocator@V?$unique_ptr@V?$basic_node@Umap_node_info@map@kmint@@@graph@kmint@@U?$default_delete@V?$basic_node@Umap_node_info@map@kmint@@@graph@kmint@@@std@@@std@@@2@@std@@@std@@QBEABQAV?$unique_ptr@V?$basic_node@Umap_node_info@map@kmint@@@graph@kmint@@U?$default_delete@V?$basic_node@Umap_node_info@map@kmint@@@graph@kmint@@@std@@@2@XZ
	?_Myend@?$_Vector_alloc@U?$_Vec_base_types@V?$unique_ptr@V?$basic_node@Uno_node_info@graph@kmint@@@graph@kmint@@U?$default_delete@V?$basic_node@Uno_node_info@graph@kmint@@@graph@kmint@@@std@@@std@@V?$allocator@V?$unique_ptr@V?$basic_node@Uno_node_info@graph@kmint@@@graph@kmint@@U?$default_delete@V?$basic_node@Uno_node_info@graph@kmint@@@graph@kmint@@@std@@@std@@@2@@std@@@std@@QAEAAPAV?$unique_ptr@V?$basic_node@Uno_node_info@graph@kmint@@@graph@kmint@@U?$default_delete@V?$basic_node@Uno_node_info@graph@kmint@@@graph@kmint@@@std@@@2@XZ
	?_Myend@?$_Vector_alloc@U?$_Vec_base_types@V?$unique_ptr@V?$basic_node@Uno_node_info@graph@kmint@@@graph@kmint@@U?$default_delete@V?$basic_node@Uno_node_info@graph@kmint@@@graph@kmint@@@std@@@std@@V?$allocator@V?$unique_ptr@V?$basic_node@Uno_node_info@graph@kmint@@@graph@kmint@@U?$default_delete@V?$basic_node@Uno_node_info@graph@kmint@@@graph@kmint@@@std@@@std@@@2@@std@@@std@@QBEABQAV?$unique_ptr@V?$basic_node@Uno_node_info@graph@kmint@@@graph@kmint@@U?$default_delete@V?$basic_node@Uno_node_info@graph@kmint@@@graph@kmint@@@std@@@2@XZ
	?_Myfirst@?$_Vector_alloc@U?$_Vec_base_types@DV?$allocator@D@std@@@std@@@std@@QAEAAPADXZ
	?_Myfirst@?$_Vector_alloc@U?$_Vec_base_types@DV?$allocator@D@std@@@std@@@std@@QBEABQADXZ
	?_Myfirst@?$_Vector_alloc@U?$_Vec_base_types@HV?$allocator@H@std@@@std@@@std@@QAEAAPAHXZ
	?_Myfirst@?$_Vector_alloc@U?$_Vec_base_types@HV?$allocator@H@std@@@std@@@std@@QBEABQAHXZ
	?_Myfirst@?$_Vector_alloc@U?$_Vec_base_types@PAVactor@play@kmint@@V?$allocator@PAVactor@play@kmint@@@std@@@std@@@std@@QAEAAPAPAVactor@play@kmint@@XZ
	?_Myfirst@?$_Vector_alloc@U?$_Vec_base_types@PAVactor@play@kmint@@V?$allocator@PAVactor@play@kmint@@@std@@@std@@@std@@QBEABQAPAVactor@play@kmint@@XZ
	?_Myfirst@?$_Vector_alloc@U?$_Vec_base_types@V?$unique_ptr@V?$basic_edge@Umap_node_info@map@kmint@@@graph@kmint@@U?$default_delete@V?$basic_edge@Umap_node_info@map@kmint@@@graph@kmint@@@std@@@std@@V?$allocator@V?$unique_ptr@V?$basic_edge@Umap_node_info@map@kmint@@@graph@kmint@@U?$default_delete@V?$basic_edge@Umap_node_info@map@kmint@@@graph@kmint@@@std@@@std@@@2@@std@@@std@@QAEAAPAV?$unique_ptr@V?$basic_edge@Umap_node_info@map@kmint@@@graph@kmint@@U?$default_delete@V?$basic_edge@Umap_node_info@map@kmint@@@graph@kmint@@@std@@@2@XZ
	?_Myfirst@?$_Vector_alloc@U?$_Vec_base_types@V?$unique_ptr@V?$basic_edge@Umap_node_info@map@kmint@@@graph@kmint@@U?$default_delete@V?$basic_edge@Umap_node_info@map@kmint@@@graph@kmint@@@std@@@std@@V?$allocator@V?$unique_ptr@V?$basic_edge@Umap_node_info@map@kmint@@@graph@kmint@@U?$default_delete@V?$basic_edge@Umap_node_info@map@kmint@@@graph@kmint@@@std@@@std@@@2@@std@@@std@@QBEABQAV?$unique_ptr@V?$basic_edge@Umap_node_info@map@kmint@@@graph@kmint@@U?$default_delete@V?$basic_edge@Umap_node_info@map@kmint@@@graph@kmint@@@std@@@2@XZ
	?_Myfirst@?$_Vector_alloc@U?$_Vec_base_types@V?$unique_ptr@V?$basic_edge@Uno_node_info@graph@kmint@@@graph@kmint@@U?$default_delete@V?$basic_edge@Uno_node_info@graph@kmint@@@graph@kmint@@@std@@@std@@V?$allocator@V?$unique_ptr@V?$basic_edge@Uno_node_info@graph@kmint@@@graph@kmint@@U?$default_delete@V?$basic_edge@Uno_node_info@graph@kmint@@@graph@kmint@@@std@@@std@@@2@@std@@@std@@QAEAAPAV?$unique_ptr@V?$basic_edge@Uno_node_info@graph@kmint@@@graph@kmint@@U?$default_delete@V?$basic_edge@Uno_node_info@graph@kmint@@@graph@kmint@@@std@@@2@XZ
	?_Myfirst@?$_Vector_alloc@U?$_Vec_base_types@V?$unique_ptr@V?$basic_edge@Uno_node_info@graph@kmint@@@graph@kmint@@U?$default_delete@V?$basic_edge@Uno_node_info@graph@kmint@@@graph@kmint@@@std@@@std@@V?$allocator@V?$unique_ptr@V?$basic_edge@Uno_node_info@graph@kmint@@@graph@kmint@@U?$default_delete@V?$basic_edge@Uno_node_info@graph@kmint@@@graph@kmint@@@std@@@std@@@2@@std@@@std@@QBEABQAV?$unique_ptr@V?$basic_edge@Uno_node_info@graph@kmint@@@graph@kmint@@U?$default_delete@V?$basic_edge@Uno_node_info@graph@kmint@@@graph@kmint@@@std@@@2@XZ
	?_Myfirst@?$_Vector_alloc@U?$_Vec_base_types@V?$unique_ptr@V?$basic_node@Umap_node_info@map@kmint@@@graph@kmint@@U?$default_delete@V?$basic_node@Umap_node_info@map@kmint@@@graph@kmint@@@std@@@std@@V?$allocator@V?$unique_ptr@V?$basic_node@Umap_node_info@map@kmint@@@graph@kmint@@U?$default_delete@V?$basic_node@Umap_node_info@map@kmint@@@graph@kmint@@@std@@@std@@@2@@std@@@std@@QAEAAPAV?$unique_ptr@V?$basic_node@Umap_node_info@map@kmint@@@graph@kmint@@U?$default_delete@V?$basic_node@Umap_node_info@map@kmint@@@graph@kmint@@@std@@@2@XZ
	?_Myfirst@?$_Vector_alloc@U?$_Vec_base_types@V?$unique_ptr@V?$basic_node@Umap_node_info@map@kmint@@@graph@kmint@@U?$default_delete@V?$basic_node@Umap_node_info@map@kmint@@@graph@kmint@@@std@@@std@@V?$allocator@V?$unique_ptr@V?$basic_node@Umap_node_info@map@kmint@@@graph@kmint@@U?$default_delete@V?$basic_node@Umap_node_info@map@kmint@@@graph@kmint@@@std@@@std@@@2@@std@@@std@@QBEABQAV?$unique_ptr@V?$basic_node@Umap_node_info@map@kmint@@@graph@kmint@@U?$default_delete@V?$basic_node@Umap_node_info@map@kmint@@@graph@kmint@@@std@@@2@XZ
	?_Myfirst@?$_Vector_alloc@U?$_Vec_base_types@V?$unique_ptr@V?$basic_node@Uno_node_info@graph@kmint@@@graph@kmint@@U?$default_delete@V?$basic_node@Uno_node_info@graph@kmint@@@graph@kmint@@@std@@@std@@V?$allocator@V?$unique_ptr@V?$basic_node@Uno_node_info@graph@kmint@@@graph@kmint@@U?$default_delete@V?$basic_node@Uno_node_info@graph@kmint@@@graph@kmint@@@std@@@std@@@2@@std@@@std@@QAEAAPAV?$unique_ptr@V?$basic_node@Uno_node_info@graph@kmint@@@graph@kmint@@U?$default_delete@V?$basic_node@Uno_node_info@graph@kmint@@@graph@kmint@@@std@@@2@XZ
	?_Myfirst@?$_Vector_alloc@U?$_Vec_base_types@V?$unique_ptr@V?$basic_node@Uno_node_info@graph@kmint@@@graph@kmint@@U?$default_delete@V?$basic_node@Uno_node_info@graph@kmint@@@graph@kmint@@@std@@@std@@V?$allocator@V?$unique_ptr@V?$basic_node@Uno_node_info@graph@kmint@@@graph@kmint@@U?$default_delete@V?$basic_node@Uno_node_info@graph@kmint@@@graph@kmint@@@std@@@std@@@2@@std@@@std@@QBEABQAV?$unique_ptr@V?$basic_node@Uno_node_info@graph@kmint@@@graph@kmint@@U?$default_delete@V?$basic_node@Uno_node_info@graph@kmint@@@graph@kmint@@@std@@@2@XZ
	?_Myfirst@?$_Vector_alloc@U?$_Vec_base_types@V?$unique_ptr@Vactor@play@kmint@@U?$default_delete@Vactor@play@kmint@@@std@@@std@@V?$allocator@V?$unique_ptr@Vactor@play@kmint@@U?$default_delete@Vactor@play@kmint@@@std@@@std@@@2@@std@@@std@@QAEAAPAV?$unique_ptr@Vactor@play@kmint@@U?$default_delete@Vactor@play@kmint@@@std@@@2@XZ
	?_Myfirst@?$_Vector_alloc@U?$_Vec_base_types@V?$unique_ptr@Vactor@play@kmint@@U?$default_delete@Vactor@play@kmint@@@std@@@std@@V?$allocator@V?$unique_ptr@Vactor@play@kmint@@U?$default_delete@Vactor@play@kmint@@@std@@@std@@@2@@std@@@std@@QBEABQAV?$unique_ptr@Vactor@play@kmint@@U?$default_delete@Vactor@play@kmint@@@std@@@2@XZ
	?_Mylast@?$_Vector_alloc@U?$_Vec_base_types@DV?$allocator@D@std@@@std@@@std@@QAEAAPADXZ
	?_Mylast@?$_Vector_alloc@U?$_Vec_base_types@DV?$allocator@D@std@@@std@@@std@@QBEABQADXZ
	?_Mylast@?$_Vector_alloc@U?$_Vec_base_types@HV?$allocator@H@std@@@std@@@std@@QAEAAPAHXZ
	?_Mylast@?$_Vector_alloc@U?$_Vec_base_types@HV?$allocator@H@std@@@std@@@std@@QBEABQAHXZ
	?_Mylast@?$_Vector_alloc@U?$_Vec_base_types@PAVactor@play@kmint@@V?$allocator@PAVactor@play@kmint@@@std@@@std@@@std@@QAEAAPAPAVactor@play@kmint@@XZ
	?_Mylast@?$_Vector_alloc@U?$_Vec_base_types@PAVactor@play@kmint@@V?$allocator@PAVactor@play@kmint@@@std@@@std@@@std@@QBEABQAPAVactor@play@kmint@@XZ
	?_Mylast@?$_Vector_alloc@U?$_Vec_base_types@V?$unique_ptr@V?$basic_edge@Umap_node_info@map@kmint@@@graph@kmint@@U?$default_delete@V?$basic_edge@Umap_node_info@map@kmint@@@graph@kmint@@@std@@@std@@V?$allocator@V?$unique_ptr@V?$basic_edge@Umap_node_info@map@kmint@@@graph@kmint@@U?$default_delete@V?$basic_edge@Umap_node_info@map@kmint@@@graph@kmint@@@std@@@std@@@2@@std@@@std@@QAEAAPAV?$unique_ptr@V?$basic_edge@Umap_node_info@map@kmint@@@graph@kmint@@U?$default_delete@V?$basic_edge@Umap_node_info@map@kmint@@@graph@kmint@@@std@@@2@XZ
	?_Mylast@?$_Vector_alloc@U?$_Vec_base_types@V?$unique_ptr@V?$basic_edge@Umap_node_info@map@kmint@@@graph@kmint@@U?$default_delete@V?$basic_edge@Umap_node_info@map@kmint@@@graph@kmint@@@std@@@std@@V?$allocator@V?$unique_ptr@V?$basic_edge@Umap_node_info@map@kmint@@@graph@kmint@@U?$default_delete@V?$basic_edge@Umap_node_info@map@kmint@@@graph@kmint@@@std@@@std@@@2@@std@@@std@@QBEABQAV?$unique_ptr@V?$basic_edge@Umap_node_info@map@kmint@@@graph@kmint@@U?$default_delete@V?$basic_edge@Umap_node_info@map@kmint@@@graph@kmint@@@std@@@2@XZ
	?_Mylast@?$_Vector_alloc@U?$_Vec_base_types@V?$unique_ptr@V?$basic_edge@Uno_node_info@graph@kmint@@@graph@kmint@@U?$default_delete@V?$basic_edge@Uno_node_info@graph@kmint@@@graph@kmint@@@std@@@std@@V?$allocator@V?$unique_ptr@V?$basic_edge@Uno_node_info@graph@kmint@@@graph@kmint@@U?$default_delete@V?$basic_edge@Uno_node_info@graph@kmint@@@graph@kmint@@@std@@@std@@@2@@std@@@std@@QAEAAPAV?$unique_ptr@V?$basic_edge@Uno_node_info@graph@kmint@@@graph@kmint@@U?$default_delete@V?$basic_edge@Uno_node_info@graph@kmint@@@graph@kmint@@@std@@@2@XZ
	?_Mylast@?$_Vector_alloc@U?$_Vec_base_types@V?$unique_ptr@V?$basic_edge@Uno_node_info@graph@kmint@@@graph@kmint@@U?$default_delete@V?$basic_edge@Uno_node_info@graph@kmint@@@graph@kmint@@@std@@@std@@V?$allocator@V?$unique_ptr@V?$basic_edge@Uno_node_info@graph@kmint@@@graph@kmint@@U?$default_delete@V?$basic_edge@Uno_node_info@graph@kmint@@@graph@kmint@@@std@@@std@@@2@@std@@@std@@QBEABQAV?$unique_ptr@V?$basic_edge@Uno_node_info@graph@kmint@@@graph@kmint@@U?$default_delete@V?$basic_edge@Uno_node_info@graph@kmint@@@graph@kmint@@@std@@@2@XZ
	?_Mylast@?$_Vector_alloc@U?$_Vec_base_types@V?$unique_ptr@V?$basic_node@Umap_node_info@map@kmint@@@graph@kmint@@U?$default_delete@V?$basic_node@Umap_node_info@map@kmint@@@graph@kmint@@@std@@@std@@V?$allocator@V?$unique_ptr@V?$basic_node@Umap_node_info@map@kmint@@@graph@kmint@@U?$default_delete@V?$basic_node@Umap_node_info@map@kmint@@@graph@kmint@@@std@@@std@@@2@@std@@@std@@QAEAAPAV?$unique_ptr@V?$basic_node@Umap_node_info@map@kmint@@@graph@kmint@@U?$default_delete@V?$basic_node@Umap_node_info@map@kmint@@@graph@kmint@@@std@@@2@XZ
	?_Mylast@?$_Vector_alloc@U?$_Vec_base_types@V?$unique_ptr@V?$basic_node@Umap_node_info@map@kmint@@@graph@kmint@@U?$default_delete@V?$basic_node@Umap_node_info@map@kmint@@@graph@kmint@@@std@@@std@@V?$allocator@V?$unique_ptr@V?$basic_node@Umap_node_info@map@kmint@@@graph@kmint@@U?$default_delete@V?$basic_node@Umap_node_info@map@kmint@@@graph@kmint@@@std@@@std@@@2@@std@@@std@@QBEABQAV?$unique_ptr@V?$basic_node@Umap_node_info@map@kmint@@@graph@kmint@@U?$default_delete@V?$basic_node@Umap_node_info@map@kmint@@@graph@kmint@@@std@@@2@XZ
	?_Mylast@?$_Vector_alloc@U?$_Vec_base_types@V?$unique_ptr@V?$basic_node@Uno_node_info@graph@kmint@@@graph@kmint@@U?$default_delete@V?$basic_node@Uno_node_info@graph@kmint@@@graph@kmint@@@std@@@std@@V?$allocator@V?$unique_ptr@V?$basic_node@Uno_node_info@graph@kmint@@@graph@kmint@@U?$default_delete@V?$basic_node@Uno_node_info@graph@kmint@@@graph@kmint@@@std@@@std@@@2@@std@@@std@@QAEAAPAV?$unique_ptr@V?$basic_node@Uno_node_info@graph@kmint@@@graph@kmint@@U?$default_delete@V?$basic_node@Uno_node_info@graph@kmint@@@graph@kmint@@@std@@@2@XZ
	?_Mylast@?$_Vector_alloc@U?$_Vec_base_types@V?$unique_ptr@V?$basic_node@Uno_node_info@graph@kmint@@@graph@kmint@@U?$default_delete@V?$basic_node@Uno_node_info@graph@kmint@@@graph@kmint@@@std@@@std@@V?$allocator@V?$unique_ptr@V?$basic_node@Uno_node_info@graph@kmint@@@graph@kmint@@U?$default_delete@V?$basic_node@Uno_node_info@graph@kmint@@@graph@kmint@@@std@@@std@@@2@@std@@@std@@QBEABQAV?$unique_ptr@V?$basic_node@Uno_node_info@graph@kmint@@@graph@kmint@@U?$default_delete@V?$basic_node@Uno_node_info@graph@kmint@@@graph@kmint@@@std@@@2@XZ
	?_Mylast@?$_Vector_alloc@U?$_Vec_base_types@V?$unique_ptr@Vactor@play@kmint@@U?$default_delete@Vactor@play@kmint@@@std@@@std@@V?$allocator@V?$unique_ptr@Vactor@play@kmint@@U?$default_delete@Vactor@play@kmint@@@std@@@std@@@2@@std@@@std@@QAEAAPAV?$unique_ptr@Vactor@play@kmint@@U?$default_delete@Vactor@play@kmint@@@std@@@2@XZ
	?_Mylast@?$_Vector_alloc@U?$_Vec_base_types@V?$unique_ptr@Vactor@play@kmint@@U?$default_delete@Vactor@play@kmint@@@std@@@std@@V?$allocator@V?$unique_ptr@Vactor@play@kmint@@U?$default_delete@Vactor@play@kmint@@@std@@@std@@@2@@std@@@std@@QBEABQAV?$unique_ptr@Vactor@play@kmint@@U?$default_delete@Vactor@play@kmint@@@std@@@2@XZ
	?_Myproxy@?$_String_alloc@U?$_String_base_types@DV?$allocator@D@std@@@std@@@std@@QAEAAPAU_Container_proxy@2@XZ
	?_Myproxy@?$_Tree_comp_alloc@V?$_Tmap_traits@DUtile_info@map@kmint@@U?$less@D@std@@V?$allocator@U?$pair@$$CBDUtile_info@map@kmint@@@std@@@5@$0A@@std@@@std@@QAEAAPAU_Container_proxy@2@XZ
	?_Myproxy@?$_Tree_comp_alloc@V?$_Tmap_traits@V?$basic_string@DU?$char_traits@D@std@@V?$allocator@D@2@@std@@Vtexture@sdl@ui@kmint@@U?$less@V?$basic_string@DU?$char_traits@D@std@@V?$allocator@D@2@@std@@@2@V?$allocator@U?$pair@$$CBV?$basic_string@DU?$char_traits@D@std@@V?$allocator@D@2@@std@@Vtexture@sdl@ui@kmint@@@std@@@2@$0A@@std@@@std@@QAEAAPAU_Container_proxy@2@XZ
	?_Myproxy@?$_Vector_alloc@U?$_Vec_base_types@DV?$allocator@D@std@@@std@@@std@@QAEAAPAU_Container_proxy@2@XZ
	?_Myproxy@?$_Vector_alloc@U?$_Vec_base_types@HV?$allocator@H@std@@@std@@@std@@QAEAAPAU_Container_proxy@2@XZ
	?_Myproxy@?$_Vector_alloc@U?$_Vec_base_types@V?$unique_ptr@V?$basic_edge@Umap_node_info@map@kmint@@@graph@kmint@@U?$default_delete@V?$basic_edge@Umap_node_info@map@kmint@@@graph@kmint@@@std@@@std@@V?$allocator@V?$unique_ptr@V?$basic_edge@Umap_node_info@map@kmint@@@graph@kmint@@U?$default_delete@V?$basic_edge@Umap_node_info@map@kmint@@@graph@kmint@@@std@@@std@@@2@@std@@@std@@QAEAAPAU_Container_proxy@2@XZ
	?_Myproxy@?$_Vector_alloc@U?$_Vec_base_types@V?$unique_ptr@V?$basic_edge@Uno_node_info@graph@kmint@@@graph@kmint@@U?$default_delete@V?$basic_edge@Uno_node_info@graph@kmint@@@graph@kmint@@@std@@@std@@V?$allocator@V?$unique_ptr@V?$basic_edge@Uno_node_info@graph@kmint@@@graph@kmint@@U?$default_delete@V?$basic_edge@Uno_node_info@graph@kmint@@@graph@kmint@@@std@@@std@@@2@@std@@@std@@QAEAAPAU_Container_proxy@2@XZ
	?_Myproxy@?$_Vector_alloc@U?$_Vec_base_types@V?$unique_ptr@V?$basic_node@Umap_node_info@map@kmint@@@graph@kmint@@U?$default_delete@V?$basic_node@Umap_node_info@map@kmint@@@graph@kmint@@@std@@@std@@V?$allocator@V?$unique_ptr@V?$basic_node@Umap_node_info@map@kmint@@@graph@kmint@@U?$default_delete@V?$basic_node@Umap_node_info@map@kmint@@@graph@kmint@@@std@@@std@@@2@@std@@@std@@QAEAAPAU_Container_proxy@2@XZ
	?_Myproxy@?$_Vector_alloc@U?$_Vec_base_types@V?$unique_ptr@V?$basic_node@Uno_node_info@graph@kmint@@@graph@kmint@@U?$default_delete@V?$basic_node@Uno_node_info@graph@kmint@@@graph@kmint@@@std@@@std@@V?$allocator@V?$unique_ptr@V?$basic_node@Uno_node_info@graph@kmint@@@graph@kmint@@U?$default_delete@V?$basic_node@Uno_node_info@graph@kmint@@@graph@kmint@@@std@@@std@@@2@@std@@@std@@QAEAAPAU_Container_proxy@2@XZ
	?_Myptr@?$_String_val@U?$_Simple_types@D@std@@@std@@QAEPADXZ
	?_Myptr@?$_String_val@U?$_Simple_types@D@std@@@std@@QBEPBDXZ
	?_Myptr@?$_Unique_ptr_base@USDL_Renderer@@V?$destroyer@USDL_Renderer@@@sdl@ui@kmint@@@std@@QBEABQAUSDL_Renderer@@XZ
	?_Myptr@?$_Unique_ptr_base@USDL_Surface@@V?$destroyer@USDL_Surface@@@sdl@ui@kmint@@@std@@QBEABQAUSDL_Surface@@XZ
	?_Myptr@?$_Unique_ptr_base@USDL_Texture@@V?$destroyer@USDL_Texture@@@sdl@ui@kmint@@@std@@QAEAAPAUSDL_Texture@@XZ
	?_Myptr@?$_Unique_ptr_base@USDL_Texture@@V?$destroyer@USDL_Texture@@@sdl@ui@kmint@@@std@@QBEABQAUSDL_Texture@@XZ
	?_Myptr@?$_Unique_ptr_base@USDL_Window@@V?$destroyer@USDL_Window@@@sdl@ui@kmint@@@std@@QBEABQAUSDL_Window@@XZ
	?_Myptr@?$_Unique_ptr_base@Uimpl@frame@ui@kmint@@U?$default_delete@Uimpl@frame@ui@kmint@@@std@@@std@@QAEAAPAUimpl@frame@ui@kmint@@XZ
	?_Myptr@?$_Unique_ptr_base@Uimpl@frame@ui@kmint@@U?$default_delete@Uimpl@frame@ui@kmint@@@std@@@std@@QBEABQAUimpl@frame@ui@kmint@@XZ
	?_Myptr@?$_Unique_ptr_base@V?$basic_edge@Umap_node_info@map@kmint@@@graph@kmint@@U?$default_delete@V?$basic_edge@Umap_node_info@map@kmint@@@graph@kmint@@@std@@@std@@QAEAAPAV?$basic_edge@Umap_node_info@map@kmint@@@graph@kmint@@XZ
	?_Myptr@?$_Unique_ptr_base@V?$basic_edge@Umap_node_info@map@kmint@@@graph@kmint@@U?$default_delete@V?$basic_edge@Umap_node_info@map@kmint@@@graph@kmint@@@std@@@std@@QBEABQAV?$basic_edge@Umap_node_info@map@kmint@@@graph@kmint@@XZ
	?_Myptr@?$_Unique_ptr_base@V?$basic_edge@Uno_node_info@graph@kmint@@@graph@kmint@@U?$default_delete@V?$basic_edge@Uno_node_info@graph@kmint@@@graph@kmint@@@std@@@std@@QAEAAPAV?$basic_edge@Uno_node_info@graph@kmint@@@graph@kmint@@XZ
	?_Myptr@?$_Unique_ptr_base@V?$basic_edge@Uno_node_info@graph@kmint@@@graph@kmint@@U?$default_delete@V?$basic_edge@Uno_node_info@graph@kmint@@@graph@kmint@@@std@@@std@@QBEABQAV?$basic_edge@Uno_node_info@graph@kmint@@@graph@kmint@@XZ
	?_Myptr@?$_Unique_ptr_base@V?$basic_node@Umap_node_info@map@kmint@@@graph@kmint@@U?$default_delete@V?$basic_node@Umap_node_info@map@kmint@@@graph@kmint@@@std@@@std@@QAEAAPAV?$basic_node@Umap_node_info@map@kmint@@@graph@kmint@@XZ
	?_Myptr@?$_Unique_ptr_base@V?$basic_node@Umap_node_info@map@kmint@@@graph@kmint@@U?$default_delete@V?$basic_node@Umap_node_info@map@kmint@@@graph@kmint@@@std@@@std@@QBEABQAV?$basic_node@Umap_node_info@map@kmint@@@graph@kmint@@XZ
	?_Myptr@?$_Unique_ptr_base@V?$basic_node@Uno_node_info@graph@kmint@@@graph@kmint@@U?$default_delete@V?$basic_node@Uno_node_info@graph@kmint@@@graph@kmint@@@std@@@std@@QAEAAPAV?$basic_node@Uno_node_info@graph@kmint@@@graph@kmint@@XZ
	?_Myptr@?$_Unique_ptr_base@V?$basic_node@Uno_node_info@graph@kmint@@@graph@kmint@@U?$default_delete@V?$basic_node@Uno_node_info@graph@kmint@@@graph@kmint@@@std@@@std@@QBEABQAV?$basic_node@Uno_node_info@graph@kmint@@@graph@kmint@@XZ
	?_Myptr@?$_Unique_ptr_base@V_Facet_base@std@@U?$default_delete@V_Facet_base@std@@@2@@std@@QAEAAPAV_Facet_base@2@XZ
	?_Myptr@?$_Unique_ptr_base@V_Facet_base@std@@U?$default_delete@V_Facet_base@std@@@2@@std@@QBEABQAV_Facet_base@2@XZ
	?_Myptr@?$_Unique_ptr_base@Vactor@play@kmint@@U?$default_delete@Vactor@play@kmint@@@std@@@std@@QAEAAPAVactor@play@kmint@@XZ
	?_Myptr@?$_Unique_ptr_base@Vactor@play@kmint@@U?$default_delete@Vactor@play@kmint@@@std@@@std@@QBEABQAVactor@play@kmint@@XZ
	?_Myptr@?$_Unique_ptr_base@Vimpl@app@ui@kmint@@U?$default_delete@Vimpl@app@ui@kmint@@@std@@@std@@QAEAAPAVimpl@app@ui@kmint@@XZ
	?_Myptr@?$_Unique_ptr_base@Vimpl@app@ui@kmint@@U?$default_delete@Vimpl@app@ui@kmint@@@std@@@std@@QBEABQAVimpl@app@ui@kmint@@XZ
	?_Myptr@?$_Unique_ptr_base@Vimpl@window@ui@kmint@@U?$default_delete@Vimpl@window@ui@kmint@@@std@@@std@@QAEAAPAVimpl@window@ui@kmint@@XZ
	?_Myptr@?$_Unique_ptr_base@Vimpl@window@ui@kmint@@U?$default_delete@Vimpl@window@ui@kmint@@@std@@@std@@QBEABQAVimpl@window@ui@kmint@@XZ
	?_Orphan_all@?$_String_alloc@U?$_String_base_types@DV?$allocator@D@std@@@std@@@std@@QAEXXZ
	?_Orphan_all@?$_Tree_comp_alloc@V?$_Tmap_traits@DUtile_info@map@kmint@@U?$less@D@std@@V?$allocator@U?$pair@$$CBDUtile_info@map@kmint@@@std@@@5@$0A@@std@@@std@@QAEXXZ
	?_Orphan_all@?$_Tree_comp_alloc@V?$_Tmap_traits@V?$basic_string@DU?$char_traits@D@std@@V?$allocator@D@2@@std@@Vtexture@sdl@ui@kmint@@U?$less@V?$basic_string@DU?$char_traits@D@std@@V?$allocator@D@2@@std@@@2@V?$allocator@U?$pair@$$CBV?$basic_string@DU?$char_traits@D@std@@V?$allocator@D@2@@std@@Vtexture@sdl@ui@kmint@@@std@@@2@$0A@@std@@@std@@QAEXXZ
	?_Orphan_all@?$_Vector_alloc@U?$_Vec_base_types@DV?$allocator@D@std@@@std@@@std@@QAEXXZ
	?_Orphan_all@?$_Vector_alloc@U?$_Vec_base_types@HV?$allocator@H@std@@@std@@@std@@QAEXXZ
	?_Orphan_all@?$_Vector_alloc@U?$_Vec_base_types@PAVactor@play@kmint@@V?$allocator@PAVactor@play@kmint@@@std@@@std@@@std@@QAEXXZ
	?_Orphan_all@?$_Vector_alloc@U?$_Vec_base_types@V?$unique_ptr@V?$basic_edge@Umap_node_info@map@kmint@@@graph@kmint@@U?$default_delete@V?$basic_edge@Umap_node_info@map@kmint@@@graph@kmint@@@std@@@std@@V?$allocator@V?$unique_ptr@V?$basic_edge@Umap_node_info@map@kmint@@@graph@kmint@@U?$default_delete@V?$basic_edge@Umap_node_info@map@kmint@@@graph@kmint@@@std@@@std@@@2@@std@@@std@@QAEXXZ
	?_Orphan_all@?$_Vector_alloc@U?$_Vec_base_types@V?$unique_ptr@V?$basic_edge@Uno_node_info@graph@kmint@@@graph@kmint@@U?$default_delete@V?$basic_edge@Uno_node_info@graph@kmint@@@graph@kmint@@@std@@@std@@V?$allocator@V?$unique_ptr@V?$basic_edge@Uno_node_info@graph@kmint@@@graph@kmint@@U?$default_delete@V?$basic_edge@Uno_node_info@graph@kmint@@@graph@kmint@@@std@@@std@@@2@@std@@@std@@QAEXXZ
	?_Orphan_all@?$_Vector_alloc@U?$_Vec_base_types@V?$unique_ptr@V?$basic_node@Umap_node_info@map@kmint@@@graph@kmint@@U?$default_delete@V?$basic_node@Umap_node_info@map@kmint@@@graph@kmint@@@std@@@std@@V?$allocator@V?$unique_ptr@V?$basic_node@Umap_node_info@map@kmint@@@graph@kmint@@U?$default_delete@V?$basic_node@Umap_node_info@map@kmint@@@graph@kmint@@@std@@@std@@@2@@std@@@std@@QAEXXZ
	?_Orphan_all@?$_Vector_alloc@U?$_Vec_base_types@V?$unique_ptr@V?$basic_node@Uno_node_info@graph@kmint@@@graph@kmint@@U?$default_delete@V?$basic_node@Uno_node_info@graph@kmint@@@graph@kmint@@@std@@@std@@V?$allocator@V?$unique_ptr@V?$basic_node@Uno_node_info@graph@kmint@@@graph@kmint@@U?$default_delete@V?$basic_node@Uno_node_info@graph@kmint@@@graph@kmint@@@std@@@std@@@2@@std@@@std@@QAEXXZ
	?_Orphan_all@_Container_base12@std@@QAEXXZ
	?_Orphan_me@_Iterator_base12@std@@QAEXXZ
	?_Orphan_ptr@?$_Tree@V?$_Tmap_traits@DUtile_info@map@kmint@@U?$less@D@std@@V?$allocator@U?$pair@$$CBDUtile_info@map@kmint@@@std@@@5@$0A@@std@@@std@@IAEXPAU?$_Tree_node@U?$pair@$$CBDUtile_info@map@kmint@@@std@@PAX@2@@Z
	?_Orphan_ptr@?$_Tree@V?$_Tmap_traits@V?$basic_string@DU?$char_traits@D@std@@V?$allocator@D@2@@std@@Vtexture@sdl@ui@kmint@@U?$less@V?$basic_string@DU?$char_traits@D@std@@V?$allocator@D@2@@std@@@2@V?$allocator@U?$pair@$$CBV?$basic_string@DU?$char_traits@D@std@@V?$allocator@D@2@@std@@Vtexture@sdl@ui@kmint@@@std@@@2@$0A@@std@@@std@@IAEXPAU?$_Tree_node@U?$pair@$$CBV?$basic_string@DU?$char_traits@D@std@@V?$allocator@D@2@@std@@Vtexture@sdl@ui@kmint@@@std@@PAX@2@@Z
	?_Orphan_range@?$vector@DV?$allocator@D@std@@@std@@ABEXPAD0@Z
	?_Orphan_range@?$vector@PAVactor@play@kmint@@V?$allocator@PAVactor@play@kmint@@@std@@@std@@ABEXPAPAVactor@play@kmint@@0@Z
	?_Orphan_range@?$vector@V?$unique_ptr@V?$basic_edge@Umap_node_info@map@kmint@@@graph@kmint@@U?$default_delete@V?$basic_edge@Umap_node_info@map@kmint@@@graph@kmint@@@std@@@std@@V?$allocator@V?$unique_ptr@V?$basic_edge@Umap_node_info@map@kmint@@@graph@kmint@@U?$default_delete@V?$basic_edge@Umap_node_info@map@kmint@@@graph@kmint@@@std@@@std@@@2@@std@@ABEXPAV?$unique_ptr@V?$basic_edge@Umap_node_info@map@kmint@@@graph@kmint@@U?$default_delete@V?$basic_edge@Umap_node_info@map@kmint@@@graph@kmint@@@std@@@2@0@Z
	?_Orphan_range@?$vector@V?$unique_ptr@V?$basic_edge@Uno_node_info@graph@kmint@@@graph@kmint@@U?$default_delete@V?$basic_edge@Uno_node_info@graph@kmint@@@graph@kmint@@@std@@@std@@V?$allocator@V?$unique_ptr@V?$basic_edge@Uno_node_info@graph@kmint@@@graph@kmint@@U?$default_delete@V?$basic_edge@Uno_node_info@graph@kmint@@@graph@kmint@@@std@@@std@@@2@@std@@ABEXPAV?$unique_ptr@V?$basic_edge@Uno_node_info@graph@kmint@@@graph@kmint@@U?$default_delete@V?$basic_edge@Uno_node_info@graph@kmint@@@graph@kmint@@@std@@@2@0@Z
	?_Orphan_range@?$vector@V?$unique_ptr@V?$basic_node@Umap_node_info@map@kmint@@@graph@kmint@@U?$default_delete@V?$basic_node@Umap_node_info@map@kmint@@@graph@kmint@@@std@@@std@@V?$allocator@V?$unique_ptr@V?$basic_node@Umap_node_info@map@kmint@@@graph@kmint@@U?$default_delete@V?$basic_node@Umap_node_info@map@kmint@@@graph@kmint@@@std@@@std@@@2@@std@@ABEXPAV?$unique_ptr@V?$basic_node@Umap_node_info@map@kmint@@@graph@kmint@@U?$default_delete@V?$basic_node@Umap_node_info@map@kmint@@@graph@kmint@@@std@@@2@0@Z
	?_Orphan_range@?$vector@V?$unique_ptr@V?$basic_node@Uno_node_info@graph@kmint@@@graph@kmint@@U?$default_delete@V?$basic_node@Uno_node_info@graph@kmint@@@graph@kmint@@@std@@@std@@V?$allocator@V?$unique_ptr@V?$basic_node@Uno_node_info@graph@kmint@@@graph@kmint@@U?$default_delete@V?$basic_node@Uno_node_info@graph@kmint@@@graph@kmint@@@std@@@std@@@2@@std@@ABEXPAV?$unique_ptr@V?$basic_node@Uno_node_info@graph@kmint@@@graph@kmint@@U?$default_delete@V?$basic_node@Uno_node_info@graph@kmint@@@graph@kmint@@@std@@@2@0@Z
	?_Orphan_range@?$vector@V?$unique_ptr@Vactor@play@kmint@@U?$default_delete@Vactor@play@kmint@@@std@@@std@@V?$allocator@V?$unique_ptr@Vactor@play@kmint@@U?$default_delete@Vactor@play@kmint@@@std@@@std@@@2@@std@@ABEXPAV?$unique_ptr@Vactor@play@kmint@@U?$default_delete@Vactor@play@kmint@@@std@@@2@0@Z
	?_Reallocate_exactly@?$vector@DV?$allocator@D@std@@@std@@AAEXI@Z
	?_Refill_lower@?$mersenne_twister@I$0CA@$0CHA@$0BIN@$0BP@$0JJAILANP@$0L@$06$0JNCMFGIA@$0P@$0OPMGAAAA@$0BC@@std@@IAEXXZ
	?_Refill_upper@?$mersenne_twister@I$0CA@$0CHA@$0BIN@$0BP@$0JJAILANP@$0L@$06$0JNCMFGIA@$0P@$0OPMGAAAA@$0BC@@std@@IAEXXZ
	?_Release@?$_Uninitialized_backout_al@PAHV?$allocator@H@std@@@std@@QAEPAHXZ
	?_Release@?$_Uninitialized_backout_al@PAV?$unique_ptr@V?$basic_edge@Umap_node_info@map@kmint@@@graph@kmint@@U?$default_delete@V?$basic_edge@Umap_node_info@map@kmint@@@graph@kmint@@@std@@@std@@V?$allocator@V?$unique_ptr@V?$basic_edge@Umap_node_info@map@kmint@@@graph@kmint@@U?$default_delete@V?$basic_edge@Umap_node_info@map@kmint@@@graph@kmint@@@std@@@std@@@2@@std@@QAEPAV?$unique_ptr@V?$basic_edge@Umap_node_info@map@kmint@@@graph@kmint@@U?$default_delete@V?$basic_edge@Umap_node_info@map@kmint@@@graph@kmint@@@std@@@2@XZ
	?_Release@?$_Uninitialized_backout_al@PAV?$unique_ptr@V?$basic_edge@Uno_node_info@graph@kmint@@@graph@kmint@@U?$default_delete@V?$basic_edge@Uno_node_info@graph@kmint@@@graph@kmint@@@std@@@std@@V?$allocator@V?$unique_ptr@V?$basic_edge@Uno_node_info@graph@kmint@@@graph@kmint@@U?$default_delete@V?$basic_edge@Uno_node_info@graph@kmint@@@graph@kmint@@@std@@@std@@@2@@std@@QAEPAV?$unique_ptr@V?$basic_edge@Uno_node_info@graph@kmint@@@graph@kmint@@U?$default_delete@V?$basic_edge@Uno_node_info@graph@kmint@@@graph@kmint@@@std@@@2@XZ
	?_Release@?$_Uninitialized_backout_al@PAV?$unique_ptr@V?$basic_node@Umap_node_info@map@kmint@@@graph@kmint@@U?$default_delete@V?$basic_node@Umap_node_info@map@kmint@@@graph@kmint@@@std@@@std@@V?$allocator@V?$unique_ptr@V?$basic_node@Umap_node_info@map@kmint@@@graph@kmint@@U?$default_delete@V?$basic_node@Umap_node_info@map@kmint@@@graph@kmint@@@std@@@std@@@2@@std@@QAEPAV?$unique_ptr@V?$basic_node@Umap_node_info@map@kmint@@@graph@kmint@@U?$default_delete@V?$basic_node@Umap_node_info@map@kmint@@@graph@kmint@@@std@@@2@XZ
	?_Release@?$_Uninitialized_backout_al@PAV?$unique_ptr@V?$basic_node@Uno_node_info@graph@kmint@@@graph@kmint@@U?$default_delete@V?$basic_node@Uno_node_info@graph@kmint@@@graph@kmint@@@std@@@std@@V?$allocator@V?$unique_ptr@V?$basic_node@Uno_node_info@graph@kmint@@@graph@kmint@@U?$default_delete@V?$basic_node@Uno_node_info@graph@kmint@@@graph@kmint@@@std@@@std@@@2@@std@@QAEPAV?$unique_ptr@V?$basic_node@Uno_node_info@graph@kmint@@@graph@kmint@@U?$default_delete@V?$basic_node@Uno_node_info@graph@kmint@@@graph@kmint@@@std@@@2@XZ
	?_Reset_copy@?$_Func_class@AAVactor@play@kmint@@AAV?$unique_ptr@Vactor@play@kmint@@U?$default_delete@Vactor@play@kmint@@@std@@@std@@@std@@IAEXABV12@@Z
	?_Reset_move@?$_Func_class@AAVactor@play@kmint@@AAV?$unique_ptr@Vactor@play@kmint@@U?$default_delete@Vactor@play@kmint@@@std@@@std@@@std@@IAEX$$QAV12@@Z
	?_Reset_move@?$_Func_class@ABVactor@play@kmint@@ABV?$unique_ptr@Vactor@play@kmint@@U?$default_delete@Vactor@play@kmint@@@std@@@std@@@std@@IAEX$$QAV12@@Z
	?_Rmost@?$_Tree_val@U?$_Tree_simple_types@U?$pair@$$CBDUtile_info@map@kmint@@@std@@@std@@@std@@QBEAAPAU?$_Tree_node@U?$pair@$$CBDUtile_info@map@kmint@@@std@@PAX@2@XZ
	?_Rmost@?$_Tree_val@U?$_Tree_simple_types@U?$pair@$$CBV?$basic_string@DU?$char_traits@D@std@@V?$allocator@D@2@@std@@Vtexture@sdl@ui@kmint@@@std@@@std@@@std@@QBEAAPAU?$_Tree_node@U?$pair@$$CBV?$basic_string@DU?$char_traits@D@std@@V?$allocator@D@2@@std@@Vtexture@sdl@ui@kmint@@@std@@PAX@2@XZ
	?_Root@?$_Tree_val@U?$_Tree_simple_types@U?$pair@$$CBDUtile_info@map@kmint@@@std@@@std@@@std@@QBEAAPAU?$_Tree_node@U?$pair@$$CBDUtile_info@map@kmint@@@std@@PAX@2@XZ
	?_Root@?$_Tree_val@U?$_Tree_simple_types@U?$pair@$$CBV?$basic_string@DU?$char_traits@D@std@@V?$allocator@D@2@@std@@Vtexture@sdl@ui@kmint@@@std@@@std@@@std@@QBEAAPAU?$_Tree_node@U?$pair@$$CBV?$basic_string@DU?$char_traits@D@std@@V?$allocator@D@2@@std@@Vtexture@sdl@ui@kmint@@@std@@PAX@2@XZ
	?_Rrotate@?$_Tree_val@U?$_Tree_simple_types@U?$pair@$$CBDUtile_info@map@kmint@@@std@@@std@@@std@@QAEXPAU?$_Tree_node@U?$pair@$$CBDUtile_info@map@kmint@@@std@@PAX@2@@Z
	?_Rrotate@?$_Tree_val@U?$_Tree_simple_types@U?$pair@$$CBV?$basic_string@DU?$char_traits@D@std@@V?$allocator@D@2@@std@@Vtexture@sdl@ui@kmint@@@std@@@std@@@std@@QAEXPAU?$_Tree_node@U?$pair@$$CBV?$basic_string@DU?$char_traits@D@std@@V?$allocator@D@2@@std@@Vtexture@sdl@ui@kmint@@@std@@PAX@2@@Z
	?_Seek_to@?$_Vector_const_iterator@V?$_Vector_val@U?$_Simple_types@V?$unique_ptr@Vactor@play@kmint@@U?$default_delete@Vactor@play@kmint@@@std@@@std@@@std@@@std@@@std@@QAEXPBV?$unique_ptr@Vactor@play@kmint@@U?$default_delete@Vactor@play@kmint@@@std@@@2@@Z
	?_Set@?$_Func_class@AAVactor@play@kmint@@AAV?$unique_ptr@Vactor@play@kmint@@U?$default_delete@Vactor@play@kmint@@@std@@@std@@@std@@AAEXPAV?$_Func_base@AAVactor@play@kmint@@AAV?$unique_ptr@Vactor@play@kmint@@U?$default_delete@Vactor@play@kmint@@@std@@@std@@@2@@Z
	?_Set@?$_Func_class@ABVactor@play@kmint@@ABV?$unique_ptr@Vactor@play@kmint@@U?$default_delete@Vactor@play@kmint@@@std@@@std@@@std@@AAEXPAV?$_Func_base@ABVactor@play@kmint@@ABV?$unique_ptr@Vactor@play@kmint@@U?$default_delete@Vactor@play@kmint@@@std@@@std@@@2@@Z
	?_Swap_all@?$_String_alloc@U?$_String_base_types@DV?$allocator@D@std@@@std@@@std@@QAEXAAV12@@Z
	?_Swap_all@?$_Vector_alloc@U?$_Vec_base_types@V?$unique_ptr@V?$basic_node@Umap_node_info@map@kmint@@@graph@kmint@@U?$default_delete@V?$basic_node@Umap_node_info@map@kmint@@@graph@kmint@@@std@@@std@@V?$allocator@V?$unique_ptr@V?$basic_node@Umap_node_info@map@kmint@@@graph@kmint@@U?$default_delete@V?$basic_node@Umap_node_info@map@kmint@@@graph@kmint@@@std@@@std@@@2@@std@@@std@@QAEXAAV12@@Z
	?_Swap_all@?$_Vector_alloc@U?$_Vec_base_types@V?$unique_ptr@V?$basic_node@Uno_node_info@graph@kmint@@@graph@kmint@@U?$default_delete@V?$basic_node@Uno_node_info@graph@kmint@@@graph@kmint@@@std@@@std@@V?$allocator@V?$unique_ptr@V?$basic_node@Uno_node_info@graph@kmint@@@graph@kmint@@U?$default_delete@V?$basic_node@Uno_node_info@graph@kmint@@@graph@kmint@@@std@@@std@@@2@@std@@@std@@QAEXAAV12@@Z
	?_Swap_all@_Container_base12@std@@QAEXAAU12@@Z
	?_Target_type@?$_Func_impl_no_alloc@P6AAAVactor@play@kmint@@ABV?$unique_ptr@Vactor@play@kmint@@U?$default_delete@Vactor@play@kmint@@@std@@@std@@@ZAAV123@AAV45@@std@@EBEABVtype_info@@XZ
	?_Target_type@?$_Func_impl_no_alloc@P6AABVactor@play@kmint@@ABV?$unique_ptr@Vactor@play@kmint@@U?$default_delete@Vactor@play@kmint@@@std@@@std@@@ZABV123@ABV45@@std@@EBEABVtype_info@@XZ
	?_Tidy@?$_Func_class@AAVactor@play@kmint@@AAV?$unique_ptr@Vactor@play@kmint@@U?$default_delete@Vactor@play@kmint@@@std@@@std@@@std@@IAEXXZ
	?_Tidy@?$_Func_class@ABVactor@play@kmint@@ABV?$unique_ptr@Vactor@play@kmint@@U?$default_delete@Vactor@play@kmint@@@std@@@std@@@std@@IAEXXZ
	?_Tidy@?$_Tree@V?$_Tmap_traits@DUtile_info@map@kmint@@U?$less@D@std@@V?$allocator@U?$pair@$$CBDUtile_info@map@kmint@@@std@@@5@$0A@@std@@@std@@IAEXXZ
	?_Tidy@?$_Tree@V?$_Tmap_traits@V?$basic_string@DU?$char_traits@D@std@@V?$allocator@D@2@@std@@Vtexture@sdl@ui@kmint@@U?$less@V?$basic_string@DU?$char_traits@D@std@@V?$allocator@D@2@@std@@@2@V?$allocator@U?$pair@$$CBV?$basic_string@DU?$char_traits@D@std@@V?$allocator@D@2@@std@@Vtexture@sdl@ui@kmint@@@std@@@2@$0A@@std@@@std@@IAEXXZ
	?_Tidy@?$basic_stringbuf@DU?$char_traits@D@std@@V?$allocator@D@2@@std@@IAEXXZ
	?_Tidy@?$vector@DV?$allocator@D@std@@@std@@AAEXXZ
	?_Tidy@?$vector@HV?$allocator@H@std@@@std@@AAEXXZ
	?_Tidy@?$vector@V?$unique_ptr@V?$basic_edge@Umap_node_info@map@kmint@@@graph@kmint@@U?$default_delete@V?$basic_edge@Umap_node_info@map@kmint@@@graph@kmint@@@std@@@std@@V?$allocator@V?$unique_ptr@V?$basic_edge@Umap_node_info@map@kmint@@@graph@kmint@@U?$default_delete@V?$basic_edge@Umap_node_info@map@kmint@@@graph@kmint@@@std@@@std@@@2@@std@@AAEXXZ
	?_Tidy@?$vector@V?$unique_ptr@V?$basic_edge@Uno_node_info@graph@kmint@@@graph@kmint@@U?$default_delete@V?$basic_edge@Uno_node_info@graph@kmint@@@graph@kmint@@@std@@@std@@V?$allocator@V?$unique_ptr@V?$basic_edge@Uno_node_info@graph@kmint@@@graph@kmint@@U?$default_delete@V?$basic_edge@Uno_node_info@graph@kmint@@@graph@kmint@@@std@@@std@@@2@@std@@AAEXXZ
	?_Tidy@?$vector@V?$unique_ptr@V?$basic_node@Umap_node_info@map@kmint@@@graph@kmint@@U?$default_delete@V?$basic_node@Umap_node_info@map@kmint@@@graph@kmint@@@std@@@std@@V?$allocator@V?$unique_ptr@V?$basic_node@Umap_node_info@map@kmint@@@graph@kmint@@U?$default_delete@V?$basic_node@Umap_node_info@map@kmint@@@graph@kmint@@@std@@@std@@@2@@std@@AAEXXZ
	?_Tidy@?$vector@V?$unique_ptr@V?$basic_node@Uno_node_info@graph@kmint@@@graph@kmint@@U?$default_delete@V?$basic_node@Uno_node_info@graph@kmint@@@graph@kmint@@@std@@@std@@V?$allocator@V?$unique_ptr@V?$basic_node@Uno_node_info@graph@kmint@@@graph@kmint@@U?$default_delete@V?$basic_node@Uno_node_info@graph@kmint@@@graph@kmint@@@std@@@std@@@2@@std@@AAEXXZ
	?_Tidy_deallocate@?$basic_string@DU?$char_traits@D@std@@V?$allocator@D@2@@std@@QAEXXZ
	?_Tidy_init@?$basic_string@DU?$char_traits@D@std@@V?$allocator@D@2@@std@@QAEXXZ
	?_Ufill@?$vector@HV?$allocator@H@std@@@std@@AAEPAHPAHIABH@Z
	?_Umove@?$vector@DV?$allocator@D@std@@@std@@AAEPADPAD00@Z
	?_Umove@?$vector@PAVactor@play@kmint@@V?$allocator@PAVactor@play@kmint@@@std@@@std@@AAEPAPAVactor@play@kmint@@PAPAV345@00@Z
	?_Umove@?$vector@V?$unique_ptr@V?$basic_edge@Umap_node_info@map@kmint@@@graph@kmint@@U?$default_delete@V?$basic_edge@Umap_node_info@map@kmint@@@graph@kmint@@@std@@@std@@V?$allocator@V?$unique_ptr@V?$basic_edge@Umap_node_info@map@kmint@@@graph@kmint@@U?$default_delete@V?$basic_edge@Umap_node_info@map@kmint@@@graph@kmint@@@std@@@std@@@2@@std@@AAEPAV?$unique_ptr@V?$basic_edge@Umap_node_info@map@kmint@@@graph@kmint@@U?$default_delete@V?$basic_edge@Umap_node_info@map@kmint@@@graph@kmint@@@std@@@2@PAV32@00@Z
	?_Umove@?$vector@V?$unique_ptr@V?$basic_edge@Uno_node_info@graph@kmint@@@graph@kmint@@U?$default_delete@V?$basic_edge@Uno_node_info@graph@kmint@@@graph@kmint@@@std@@@std@@V?$allocator@V?$unique_ptr@V?$basic_edge@Uno_node_info@graph@kmint@@@graph@kmint@@U?$default_delete@V?$basic_edge@Uno_node_info@graph@kmint@@@graph@kmint@@@std@@@std@@@2@@std@@AAEPAV?$unique_ptr@V?$basic_edge@Uno_node_info@graph@kmint@@@graph@kmint@@U?$default_delete@V?$basic_edge@Uno_node_info@graph@kmint@@@graph@kmint@@@std@@@2@PAV32@00@Z
	?_Umove@?$vector@V?$unique_ptr@V?$basic_node@Umap_node_info@map@kmint@@@graph@kmint@@U?$default_delete@V?$basic_node@Umap_node_info@map@kmint@@@graph@kmint@@@std@@@std@@V?$allocator@V?$unique_ptr@V?$basic_node@Umap_node_info@map@kmint@@@graph@kmint@@U?$default_delete@V?$basic_node@Umap_node_info@map@kmint@@@graph@kmint@@@std@@@std@@@2@@std@@AAEPAV?$unique_ptr@V?$basic_node@Umap_node_info@map@kmint@@@graph@kmint@@U?$default_delete@V?$basic_node@Umap_node_info@map@kmint@@@graph@kmint@@@std@@@2@PAV32@00@Z
	?_Umove@?$vector@V?$unique_ptr@V?$basic_node@Uno_node_info@graph@kmint@@@graph@kmint@@U?$default_delete@V?$basic_node@Uno_node_info@graph@kmint@@@graph@kmint@@@std@@@std@@V?$allocator@V?$unique_ptr@V?$basic_node@Uno_node_info@graph@kmint@@@graph@kmint@@U?$default_delete@V?$basic_node@Uno_node_info@graph@kmint@@@graph@kmint@@@std@@@std@@@2@@std@@AAEPAV?$unique_ptr@V?$basic_node@Uno_node_info@graph@kmint@@@graph@kmint@@U?$default_delete@V?$basic_node@Uno_node_info@graph@kmint@@@graph@kmint@@@std@@@2@PAV32@00@Z
	?_Umove_if_noexcept1@?$vector@DV?$allocator@D@std@@@std@@AAEXPAD00U?$integral_constant@_N$00@2@@Z
	?_Umove_if_noexcept1@?$vector@PAVactor@play@kmint@@V?$allocator@PAVactor@play@kmint@@@std@@@std@@AAEXPAPAVactor@play@kmint@@00U?$integral_constant@_N$00@2@@Z
	?_Umove_if_noexcept1@?$vector@V?$unique_ptr@V?$basic_edge@Umap_node_info@map@kmint@@@graph@kmint@@U?$default_delete@V?$basic_edge@Umap_node_info@map@kmint@@@graph@kmint@@@std@@@std@@V?$allocator@V?$unique_ptr@V?$basic_edge@Umap_node_info@map@kmint@@@graph@kmint@@U?$default_delete@V?$basic_edge@Umap_node_info@map@kmint@@@graph@kmint@@@std@@@std@@@2@@std@@AAEXPAV?$unique_ptr@V?$basic_edge@Umap_node_info@map@kmint@@@graph@kmint@@U?$default_delete@V?$basic_edge@Umap_node_info@map@kmint@@@graph@kmint@@@std@@@2@00U?$integral_constant@_N$00@2@@Z
	?_Umove_if_noexcept1@?$vector@V?$unique_ptr@V?$basic_edge@Uno_node_info@graph@kmint@@@graph@kmint@@U?$default_delete@V?$basic_edge@Uno_node_info@graph@kmint@@@graph@kmint@@@std@@@std@@V?$allocator@V?$unique_ptr@V?$basic_edge@Uno_node_info@graph@kmint@@@graph@kmint@@U?$default_delete@V?$basic_edge@Uno_node_info@graph@kmint@@@graph@kmint@@@std@@@std@@@2@@std@@AAEXPAV?$unique_ptr@V?$basic_edge@Uno_node_info@graph@kmint@@@graph@kmint@@U?$default_delete@V?$basic_edge@Uno_node_info@graph@kmint@@@graph@kmint@@@std@@@2@00U?$integral_constant@_N$00@2@@Z
	?_Umove_if_noexcept1@?$vector@V?$unique_ptr@V?$basic_node@Umap_node_info@map@kmint@@@graph@kmint@@U?$default_delete@V?$basic_node@Umap_node_info@map@kmint@@@graph@kmint@@@std@@@std@@V?$allocator@V?$unique_ptr@V?$basic_node@Umap_node_info@map@kmint@@@graph@kmint@@U?$default_delete@V?$basic_node@Umap_node_info@map@kmint@@@graph@kmint@@@std@@@std@@@2@@std@@AAEXPAV?$unique_ptr@V?$basic_node@Umap_node_info@map@kmint@@@graph@kmint@@U?$default_delete@V?$basic_node@Umap_node_info@map@kmint@@@graph@kmint@@@std@@@2@00U?$integral_constant@_N$00@2@@Z
	?_Umove_if_noexcept1@?$vector@V?$unique_ptr@V?$basic_node@Uno_node_info@graph@kmint@@@graph@kmint@@U?$default_delete@V?$basic_node@Uno_node_info@graph@kmint@@@graph@kmint@@@std@@@std@@V?$allocator@V?$unique_ptr@V?$basic_node@Uno_node_info@graph@kmint@@@graph@kmint@@U?$default_delete@V?$basic_node@Uno_node_info@graph@kmint@@@graph@kmint@@@std@@@std@@@2@@std@@AAEXPAV?$unique_ptr@V?$basic_node@Uno_node_info@graph@kmint@@@graph@kmint@@U?$default_delete@V?$basic_node@Uno_node_info@graph@kmint@@@graph@kmint@@@std@@@2@00U?$integral_constant@_N$00@2@@Z
	?_Umove_if_noexcept@?$vector@DV?$allocator@D@std@@@std@@AAEXPAD00@Z
	?_Umove_if_noexcept@?$vector@PAVactor@play@kmint@@V?$allocator@PAVactor@play@kmint@@@std@@@std@@AAEXPAPAVactor@play@kmint@@00@Z
	?_Umove_if_noexcept@?$vector@V?$unique_ptr@V?$basic_edge@Umap_node_info@map@kmint@@@graph@kmint@@U?$default_delete@V?$basic_edge@Umap_node_info@map@kmint@@@graph@kmint@@@std@@@std@@V?$allocator@V?$unique_ptr@V?$basic_edge@Umap_node_info@map@kmint@@@graph@kmint@@U?$default_delete@V?$basic_edge@Umap_node_info@map@kmint@@@graph@kmint@@@std@@@std@@@2@@std@@AAEXPAV?$unique_ptr@V?$basic_edge@Umap_node_info@map@kmint@@@graph@kmint@@U?$default_delete@V?$basic_edge@Umap_node_info@map@kmint@@@graph@kmint@@@std@@@2@00@Z
	?_Umove_if_noexcept@?$vector@V?$unique_ptr@V?$basic_edge@Uno_node_info@graph@kmint@@@graph@kmint@@U?$default_delete@V?$basic_edge@Uno_node_info@graph@kmint@@@graph@kmint@@@std@@@std@@V?$allocator@V?$unique_ptr@V?$basic_edge@Uno_node_info@graph@kmint@@@graph@kmint@@U?$default_delete@V?$basic_edge@Uno_node_info@graph@kmint@@@graph@kmint@@@std@@@std@@@2@@std@@AAEXPAV?$unique_ptr@V?$basic_edge@Uno_node_info@graph@kmint@@@graph@kmint@@U?$default_delete@V?$basic_edge@Uno_node_info@graph@kmint@@@graph@kmint@@@std@@@2@00@Z
	?_Umove_if_noexcept@?$vector@V?$unique_ptr@V?$basic_node@Umap_node_info@map@kmint@@@graph@kmint@@U?$default_delete@V?$basic_node@Umap_node_info@map@kmint@@@graph@kmint@@@std@@@std@@V?$allocator@V?$unique_ptr@V?$basic_node@Umap_node_info@map@kmint@@@graph@kmint@@U?$default_delete@V?$basic_node@Umap_node_info@map@kmint@@@graph@kmint@@@std@@@std@@@2@@std@@AAEXPAV?$unique_ptr@V?$basic_node@Umap_node_info@map@kmint@@@graph@kmint@@U?$default_delete@V?$basic_node@Umap_node_info@map@kmint@@@graph@kmint@@@std@@@2@00@Z
	?_Umove_if_noexcept@?$vector@V?$unique_ptr@V?$basic_node@Uno_node_info@graph@kmint@@@graph@kmint@@U?$default_delete@V?$basic_node@Uno_node_info@graph@kmint@@@graph@kmint@@@std@@@std@@V?$allocator@V?$unique_ptr@V?$basic_node@Uno_node_info@graph@kmint@@@graph@kmint@@U?$default_delete@V?$basic_node@Uno_node_info@graph@kmint@@@graph@kmint@@@std@@@std@@@2@@std@@AAEXPAV?$unique_ptr@V?$basic_node@Uno_node_info@graph@kmint@@@graph@kmint@@U?$default_delete@V?$basic_node@Uno_node_info@graph@kmint@@@graph@kmint@@@std@@@2@00@Z
	?_Unwrapped@?$_Vector_iterator@V?$_Vector_val@U?$_Simple_types@V?$unique_ptr@Vactor@play@kmint@@U?$default_delete@Vactor@play@kmint@@@std@@@std@@@std@@@std@@@std@@QBEPAV?$unique_ptr@Vactor@play@kmint@@U?$default_delete@Vactor@play@kmint@@@std@@@2@XZ
	?_Verify_range@std@@YAXABV?$_Vector_const_iterator@V?$_Vector_val@U?$_Simple_types@V?$unique_ptr@Vactor@play@kmint@@U?$default_delete@Vactor@play@kmint@@@std@@@std@@@std@@@std@@@1@0@Z
	?_Xlen@?$basic_string@DU?$char_traits@D@std@@V?$allocator@D@2@@std@@SAXXZ
	?_Xlength@?$vector@DV?$allocator@D@std@@@std@@CAXXZ
	?_Xlength@?$vector@HV?$allocator@H@std@@@std@@CAXXZ
	?_Xlength@?$vector@PAVactor@play@kmint@@V?$allocator@PAVactor@play@kmint@@@std@@@std@@CAXXZ
	?_Xlength@?$vector@V?$unique_ptr@V?$basic_edge@Umap_node_info@map@kmint@@@graph@kmint@@U?$default_delete@V?$basic_edge@Umap_node_info@map@kmint@@@graph@kmint@@@std@@@std@@V?$allocator@V?$unique_ptr@V?$basic_edge@Umap_node_info@map@kmint@@@graph@kmint@@U?$default_delete@V?$basic_edge@Umap_node_info@map@kmint@@@graph@kmint@@@std@@@std@@@2@@std@@CAXXZ
	?_Xlength@?$vector@V?$unique_ptr@V?$basic_edge@Uno_node_info@graph@kmint@@@graph@kmint@@U?$default_delete@V?$basic_edge@Uno_node_info@graph@kmint@@@graph@kmint@@@std@@@std@@V?$allocator@V?$unique_ptr@V?$basic_edge@Uno_node_info@graph@kmint@@@graph@kmint@@U?$default_delete@V?$basic_edge@Uno_node_info@graph@kmint@@@graph@kmint@@@std@@@std@@@2@@std@@CAXXZ
	?_Xlength@?$vector@V?$unique_ptr@V?$basic_node@Umap_node_info@map@kmint@@@graph@kmint@@U?$default_delete@V?$basic_node@Umap_node_info@map@kmint@@@graph@kmint@@@std@@@std@@V?$allocator@V?$unique_ptr@V?$basic_node@Umap_node_info@map@kmint@@@graph@kmint@@U?$default_delete@V?$basic_node@Umap_node_info@map@kmint@@@graph@kmint@@@std@@@std@@@2@@std@@CAXXZ
	?_Xlength@?$vector@V?$unique_ptr@V?$basic_node@Uno_node_info@graph@kmint@@@graph@kmint@@U?$default_delete@V?$basic_node@Uno_node_info@graph@kmint@@@graph@kmint@@@std@@@std@@V?$allocator@V?$unique_ptr@V?$basic_node@Uno_node_info@graph@kmint@@@graph@kmint@@U?$default_delete@V?$basic_node@Uno_node_info@graph@kmint@@@graph@kmint@@@std@@@std@@@2@@std@@CAXXZ
	?_Xran@?$_String_val@U?$_Simple_types@D@std@@@std@@SAXXZ
	?__empty_global_delete@@YAXPAX@Z
	?__empty_global_delete@@YAXPAXI@Z
	?__empty_global_delete@@YAXPAXIW4align_val_t@std@@@Z
	?__empty_global_delete@@YAXPAXW4align_val_t@std@@@Z
	?acos@@YAMM@Z
	?acos@math@kmint@@YA?AVangle@12@M@Z
	?act@stage@play@kmint@@QAEXV?$duration@_JU?$ratio@$00$0DLJKMKAA@@std@@@chrono@std@@@Z
	?add_edge@?$basic_node@Umap_node_info@map@kmint@@@graph@kmint@@QAEXABV123@M@Z
	?add_edge@?$basic_node@Uno_node_info@graph@kmint@@@graph@kmint@@QAEXABV123@M@Z
	?add_node@?$basic_graph@Umap_node_info@map@kmint@@@graph@kmint@@QAEAAV?$basic_node@Umap_node_info@map@kmint@@@23@V?$basic_vector2d@M@math@3@$$QAUmap_node_info@map@3@@Z
	?add_node@?$basic_graph@Uno_node_info@graph@kmint@@@graph@kmint@@QAEAAV?$basic_node@Uno_node_info@graph@kmint@@@23@V?$basic_vector2d@M@math@3@ABUno_node_info@23@@Z
	?add_tile_info@map_info@map@kmint@@QAEXUtile_info@23@@Z
	?allocate@?$allocator@D@std@@QAEPADI@Z
	?allocate@?$allocator@H@std@@QAEPAHI@Z
	?allocate@?$allocator@PAVactor@play@kmint@@@std@@QAEPAPAVactor@play@kmint@@I@Z
	?allocate@?$allocator@U?$_Tree_node@U?$pair@$$CBDUtile_info@map@kmint@@@std@@PAX@std@@@std@@QAEPAU?$_Tree_node@U?$pair@$$CBDUtile_info@map@kmint@@@std@@PAX@2@I@Z
	?allocate@?$allocator@U?$_Tree_node@U?$pair@$$CBV?$basic_string@DU?$char_traits@D@std@@V?$allocator@D@2@@std@@Vtexture@sdl@ui@kmint@@@std@@PAX@std@@@std@@QAEPAU?$_Tree_node@U?$pair@$$CBV?$basic_string@DU?$char_traits@D@std@@V?$allocator@D@2@@std@@Vtexture@sdl@ui@kmint@@@std@@PAX@2@I@Z
	?allocate@?$allocator@U_Container_proxy@std@@@std@@QAEPAU_Container_proxy@2@I@Z
	?allocate@?$allocator@V?$unique_ptr@V?$basic_edge@Umap_node_info@map@kmint@@@graph@kmint@@U?$default_delete@V?$basic_edge@Umap_node_info@map@kmint@@@graph@kmint@@@std@@@std@@@std@@QAEPAV?$unique_ptr@V?$basic_edge@Umap_node_info@map@kmint@@@graph@kmint@@U?$default_delete@V?$basic_edge@Umap_node_info@map@kmint@@@graph@kmint@@@std@@@2@I@Z
	?allocate@?$allocator@V?$unique_ptr@V?$basic_edge@Uno_node_info@graph@kmint@@@graph@kmint@@U?$default_delete@V?$basic_edge@Uno_node_info@graph@kmint@@@graph@kmint@@@std@@@std@@@std@@QAEPAV?$unique_ptr@V?$basic_edge@Uno_node_info@graph@kmint@@@graph@kmint@@U?$default_delete@V?$basic_edge@Uno_node_info@graph@kmint@@@graph@kmint@@@std@@@2@I@Z
	?allocate@?$allocator@V?$unique_ptr@V?$basic_node@Umap_node_info@map@kmint@@@graph@kmint@@U?$default_delete@V?$basic_node@Umap_node_info@map@kmint@@@graph@kmint@@@std@@@std@@@std@@QAEPAV?$unique_ptr@V?$basic_node@Umap_node_info@map@kmint@@@graph@kmint@@U?$default_delete@V?$basic_node@Umap_node_info@map@kmint@@@graph@kmint@@@std@@@2@I@Z
	?allocate@?$allocator@V?$unique_ptr@V?$basic_node@Uno_node_info@graph@kmint@@@graph@kmint@@U?$default_delete@V?$basic_node@Uno_node_info@graph@kmint@@@graph@kmint@@@std@@@std@@@std@@QAEPAV?$unique_ptr@V?$basic_node@Uno_node_info@graph@kmint@@@graph@kmint@@U?$default_delete@V?$basic_node@Uno_node_info@graph@kmint@@@graph@kmint@@@std@@@2@I@Z
	?alpha@color@graphics@kmint@@QBEEXZ
	?append@?$basic_string@DU?$char_traits@D@std@@V?$allocator@D@2@@std@@QAEAAV12@ABV12@@Z
	?append@?$basic_string@DU?$char_traits@D@std@@V?$allocator@D@2@@std@@QAEAAV12@QBD@Z
	?append@?$basic_string@DU?$char_traits@D@std@@V?$allocator@D@2@@std@@QAEAAV12@QBDI@Z
	?asin@@YAMM@Z
	?asin@math@kmint@@YA?AVangle@12@M@Z
	?assign@?$basic_string@DU?$char_traits@D@std@@V?$allocator@D@2@@std@@QAEAAV12@QBD@Z
	?assign@?$basic_string@DU?$char_traits@D@std@@V?$allocator@D@2@@std@@QAEAAV12@QBDI@Z
	?assign@?$char_traits@D@std@@SAXAADABD@Z
	?at@?$map@DUtile_info@0kmint@@U?$less@D@std@@V?$allocator@U?$pair@$$CBDUtile_info@map@kmint@@@std@@@4@@std@@QAEAAUtile_info@map@kmint@@ABD@Z
	?at@map_info@map@kmint@@QAEAAUtile_info@23@D@Z
	?atan2@@YAMMM@Z
	?atan2@math@kmint@@YA?AVangle@12@MM@Z
	?atan@@YAMM@Z
	?atan@math@kmint@@YA?AVangle@12@M@Z
	?back@?$vector@V?$unique_ptr@V?$basic_node@Umap_node_info@map@kmint@@@graph@kmint@@U?$default_delete@V?$basic_node@Umap_node_info@map@kmint@@@graph@kmint@@@std@@@std@@V?$allocator@V?$unique_ptr@V?$basic_node@Umap_node_info@map@kmint@@@graph@kmint@@U?$default_delete@V?$basic_node@Umap_node_info@map@kmint@@@graph@kmint@@@std@@@std@@@2@@std@@QAEAAV?$unique_ptr@V?$basic_node@Umap_node_info@map@kmint@@@graph@kmint@@U?$default_delete@V?$basic_node@Umap_node_info@map@kmint@@@graph@kmint@@@std@@@2@XZ
	?back@?$vector@V?$unique_ptr@V?$basic_node@Uno_node_info@graph@kmint@@@graph@kmint@@U?$default_delete@V?$basic_node@Uno_node_info@graph@kmint@@@graph@kmint@@@std@@@std@@V?$allocator@V?$unique_ptr@V?$basic_node@Uno_node_info@graph@kmint@@@graph@kmint@@U?$default_delete@V?$basic_node@Uno_node_info@graph@kmint@@@graph@kmint@@@std@@@std@@@2@@std@@QAEAAV?$unique_ptr@V?$basic_node@Uno_node_info@graph@kmint@@@graph@kmint@@U?$default_delete@V?$basic_node@Uno_node_info@graph@kmint@@@graph@kmint@@@std@@@2@XZ
	?begin@?$_Tree@V?$_Tmap_traits@DUtile_info@map@kmint@@U?$less@D@std@@V?$allocator@U?$pair@$$CBDUtile_info@map@kmint@@@std@@@5@$0A@@std@@@std@@QAE?AV?$_Tree_iterator@V?$_Tree_val@U?$_Tree_simple_types@U?$pair@$$CBDUtile_info@map@kmint@@@std@@@std@@@std@@@2@XZ
	?begin@?$_Tree@V?$_Tmap_traits@V?$basic_string@DU?$char_traits@D@std@@V?$allocator@D@2@@std@@Vtexture@sdl@ui@kmint@@U?$less@V?$basic_string@DU?$char_traits@D@std@@V?$allocator@D@2@@std@@@2@V?$allocator@U?$pair@$$CBV?$basic_string@DU?$char_traits@D@std@@V?$allocator@D@2@@std@@Vtexture@sdl@ui@kmint@@@std@@@2@$0A@@std@@@std@@QAE?AV?$_Tree_iterator@V?$_Tree_val@U?$_Tree_simple_types@U?$pair@$$CBV?$basic_string@DU?$char_traits@D@std@@V?$allocator@D@2@@std@@Vtexture@sdl@ui@kmint@@@std@@@std@@@std@@@2@XZ
	?begin@?$vector@V?$unique_ptr@Vactor@play@kmint@@U?$default_delete@Vactor@play@kmint@@@std@@@std@@V?$allocator@V?$unique_ptr@Vactor@play@kmint@@U?$default_delete@Vactor@play@kmint@@@std@@@std@@@2@@std@@QAE?AV?$_Vector_iterator@V?$_Vector_val@U?$_Simple_types@V?$unique_ptr@Vactor@play@kmint@@U?$default_delete@Vactor@play@kmint@@@std@@@std@@@std@@@std@@@2@XZ
	?begin@?$vector@V?$unique_ptr@Vactor@play@kmint@@U?$default_delete@Vactor@play@kmint@@@std@@@std@@V?$allocator@V?$unique_ptr@Vactor@play@kmint@@U?$default_delete@Vactor@play@kmint@@@std@@@std@@@2@@std@@QBE?AV?$_Vector_const_iterator@V?$_Vector_val@U?$_Simple_types@V?$unique_ptr@Vactor@play@kmint@@U?$default_delete@Vactor@play@kmint@@@std@@@std@@@std@@@std@@@2@XZ
	?begin@stage@play@kmint@@QAE?AV?$wrapped_iterator@Vactor@play@kmint@@V?$_Vector_iterator@V?$_Vector_val@U?$_Simple_types@V?$unique_ptr@Vactor@play@kmint@@U?$default_delete@Vactor@play@kmint@@@std@@@std@@@std@@@std@@@std@@@util@3@XZ
	?begin@stage@play@kmint@@QBE?AV?$wrapped_iterator@$$CBVactor@play@kmint@@V?$_Vector_const_iterator@V?$_Vector_val@U?$_Simple_types@V?$unique_ptr@Vactor@play@kmint@@U?$default_delete@Vactor@play@kmint@@@std@@@std@@@std@@@std@@@std@@@util@3@XZ
	?begin_frame@renderer@ui@kmint@@QAEXXZ
	?blue@color@graphics@kmint@@QBEEXZ
	?build_edges@internal_map@map@kmint@@AAEXXZ
	?build_graph@internal_map@map@kmint@@AAEXXZ
	?build_nodes@internal_map@map@kmint@@AAEXXZ
	?c_str@?$basic_string@DU?$char_traits@D@std@@V?$allocator@D@2@@std@@QBEPBDXZ
	?capacity@?$vector@DV?$allocator@D@std@@@std@@QBEIXZ
	?capacity@?$vector@HV?$allocator@H@std@@@std@@QBEIXZ
	?capacity@?$vector@PAVactor@play@kmint@@V?$allocator@PAVactor@play@kmint@@@std@@@std@@QBEIXZ
	?capacity@?$vector@V?$unique_ptr@V?$basic_edge@Umap_node_info@map@kmint@@@graph@kmint@@U?$default_delete@V?$basic_edge@Umap_node_info@map@kmint@@@graph@kmint@@@std@@@std@@V?$allocator@V?$unique_ptr@V?$basic_edge@Umap_node_info@map@kmint@@@graph@kmint@@U?$default_delete@V?$basic_edge@Umap_node_info@map@kmint@@@graph@kmint@@@std@@@std@@@2@@std@@QBEIXZ
	?capacity@?$vector@V?$unique_ptr@V?$basic_edge@Uno_node_info@graph@kmint@@@graph@kmint@@U?$default_delete@V?$basic_edge@Uno_node_info@graph@kmint@@@graph@kmint@@@std@@@std@@V?$allocator@V?$unique_ptr@V?$basic_edge@Uno_node_info@graph@kmint@@@graph@kmint@@U?$default_delete@V?$basic_edge@Uno_node_info@graph@kmint@@@graph@kmint@@@std@@@std@@@2@@std@@QBEIXZ
	?capacity@?$vector@V?$unique_ptr@V?$basic_node@Umap_node_info@map@kmint@@@graph@kmint@@U?$default_delete@V?$basic_node@Umap_node_info@map@kmint@@@graph@kmint@@@std@@@std@@V?$allocator@V?$unique_ptr@V?$basic_node@Umap_node_info@map@kmint@@@graph@kmint@@U?$default_delete@V?$basic_node@Umap_node_info@map@kmint@@@graph@kmint@@@std@@@std@@@2@@std@@QBEIXZ
	?capacity@?$vector@V?$unique_ptr@V?$basic_node@Uno_node_info@graph@kmint@@@graph@kmint@@U?$default_delete@V?$basic_node@Uno_node_info@graph@kmint@@@graph@kmint@@@std@@@std@@V?$allocator@V?$unique_ptr@V?$basic_node@Uno_node_info@graph@kmint@@@graph@kmint@@U?$default_delete@V?$basic_node@Uno_node_info@graph@kmint@@@graph@kmint@@@std@@@std@@@2@@std@@QBEIXZ
	?cbegin@stage@play@kmint@@QBE?AV?$wrapped_iterator@$$CBVactor@play@kmint@@V?$_Vector_const_iterator@V?$_Vector_val@U?$_Simple_types@V?$unique_ptr@Vactor@play@kmint@@U?$default_delete@Vactor@play@kmint@@@std@@@std@@@std@@@std@@@std@@@util@3@XZ
	?ceil@@YAMM@Z
	?cend@stage@play@kmint@@QBE?AV?$wrapped_iterator@$$CBVactor@play@kmint@@V?$_Vector_const_iterator@V?$_Vector_val@U?$_Simple_types@V?$unique_ptr@Vactor@play@kmint@@U?$default_delete@Vactor@play@kmint@@@std@@@std@@@std@@@std@@@std@@@util@3@XZ
	?clear@?$_Tree@V?$_Tmap_traits@DUtile_info@map@kmint@@U?$less@D@std@@V?$allocator@U?$pair@$$CBDUtile_info@map@kmint@@@std@@@5@$0A@@std@@@std@@QAEXXZ
	?clear@?$_Tree@V?$_Tmap_traits@V?$basic_string@DU?$char_traits@D@std@@V?$allocator@D@2@@std@@Vtexture@sdl@ui@kmint@@U?$less@V?$basic_string@DU?$char_traits@D@std@@V?$allocator@D@2@@std@@@2@V?$allocator@U?$pair@$$CBV?$basic_string@DU?$char_traits@D@std@@V?$allocator@D@2@@std@@Vtexture@sdl@ui@kmint@@@std@@@2@$0A@@std@@@std@@QAEXXZ
	?clear@?$vector@PAVactor@play@kmint@@V?$allocator@PAVactor@play@kmint@@@std@@@std@@QAEXXZ
	?collision@play@kmint@@YA_NABVactor@12@0@Z
	?compare@?$basic_string@DU?$char_traits@D@std@@V?$allocator@D@2@@std@@QBEHABV12@@Z
	?compare@?$char_traits@D@std@@SAHQBD0I@Z
	?copy@?$char_traits@D@std@@SAPADQADQBDI@Z
	?deallocate@?$_Default_allocator_traits@V?$allocator@U?$_Tree_node@U?$pair@$$CBDUtile_info@map@kmint@@@std@@PAX@std@@@std@@@std@@SAXAAV?$allocator@U?$_Tree_node@U?$pair@$$CBDUtile_info@map@kmint@@@std@@PAX@std@@@2@QAU?$_Tree_node@U?$pair@$$CBDUtile_info@map@kmint@@@std@@PAX@2@I@Z
	?deallocate@?$_Default_allocator_traits@V?$allocator@U?$_Tree_node@U?$pair@$$CBV?$basic_string@DU?$char_traits@D@std@@V?$allocator@D@2@@std@@Vtexture@sdl@ui@kmint@@@std@@PAX@std@@@std@@@std@@SAXAAV?$allocator@U?$_Tree_node@U?$pair@$$CBV?$basic_string@DU?$char_traits@D@std@@V?$allocator@D@2@@std@@Vtexture@sdl@ui@kmint@@@std@@PAX@std@@@2@QAU?$_Tree_node@U?$pair@$$CBV?$basic_string@DU?$char_traits@D@std@@V?$allocator@D@2@@std@@Vtexture@sdl@ui@kmint@@@std@@PAX@2@I@Z
	?deallocate@?$_Default_allocator_traits@V?$allocator@U_Container_proxy@std@@@std@@@std@@SAXAAV?$allocator@U_Container_proxy@std@@@2@QAU_Container_proxy@2@I@Z
	?deallocate@?$allocator@D@std@@QAEXQADI@Z
	?deallocate@?$allocator@H@std@@QAEXQAHI@Z
	?deallocate@?$allocator@PAVactor@play@kmint@@@std@@QAEXQAPAVactor@play@kmint@@I@Z
	?deallocate@?$allocator@U?$_Tree_node@U?$pair@$$CBDUtile_info@map@kmint@@@std@@PAX@std@@@std@@QAEXQAU?$_Tree_node@U?$pair@$$CBDUtile_info@map@kmint@@@std@@PAX@2@I@Z
	?deallocate@?$allocator@U?$_Tree_node@U?$pair@$$CBV?$basic_string@DU?$char_traits@D@std@@V?$allocator@D@2@@std@@Vtexture@sdl@ui@kmint@@@std@@PAX@std@@@std@@QAEXQAU?$_Tree_node@U?$pair@$$CBV?$basic_string@DU?$char_traits@D@std@@V?$allocator@D@2@@std@@Vtexture@sdl@ui@kmint@@@std@@PAX@2@I@Z
	?deallocate@?$allocator@V?$unique_ptr@V?$basic_edge@Umap_node_info@map@kmint@@@graph@kmint@@U?$default_delete@V?$basic_edge@Umap_node_info@map@kmint@@@graph@kmint@@@std@@@std@@@std@@QAEXQAV?$unique_ptr@V?$basic_edge@Umap_node_info@map@kmint@@@graph@kmint@@U?$default_delete@V?$basic_edge@Umap_node_info@map@kmint@@@graph@kmint@@@std@@@2@I@Z
	?deallocate@?$allocator@V?$unique_ptr@V?$basic_edge@Uno_node_info@graph@kmint@@@graph@kmint@@U?$default_delete@V?$basic_edge@Uno_node_info@graph@kmint@@@graph@kmint@@@std@@@std@@@std@@QAEXQAV?$unique_ptr@V?$basic_edge@Uno_node_info@graph@kmint@@@graph@kmint@@U?$default_delete@V?$basic_edge@Uno_node_info@graph@kmint@@@graph@kmint@@@std@@@2@I@Z
	?deallocate@?$allocator@V?$unique_ptr@V?$basic_node@Umap_node_info@map@kmint@@@graph@kmint@@U?$default_delete@V?$basic_node@Umap_node_info@map@kmint@@@graph@kmint@@@std@@@std@@@std@@QAEXQAV?$unique_ptr@V?$basic_node@Umap_node_info@map@kmint@@@graph@kmint@@U?$default_delete@V?$basic_node@Umap_node_info@map@kmint@@@graph@kmint@@@std@@@2@I@Z
	?deallocate@?$allocator@V?$unique_ptr@V?$basic_node@Uno_node_info@graph@kmint@@@graph@kmint@@U?$default_delete@V?$basic_node@Uno_node_info@graph@kmint@@@graph@kmint@@@std@@@std@@@std@@QAEXQAV?$unique_ptr@V?$basic_node@Uno_node_info@graph@kmint@@@graph@kmint@@U?$default_delete@V?$basic_node@Uno_node_info@graph@kmint@@@graph@kmint@@@std@@@2@I@Z
	?destroy@?$destroyer@USDL_Renderer@@@sdl@ui@kmint@@CAXPAUSDL_Renderer@@@Z
	?destroy@?$destroyer@USDL_Surface@@@sdl@ui@kmint@@CAXPAUSDL_Surface@@@Z
	?destroy@?$destroyer@USDL_Texture@@@sdl@ui@kmint@@CAXPAUSDL_Texture@@@Z
	?destroy@?$destroyer@USDL_Window@@@sdl@ui@kmint@@CAXPAUSDL_Window@@@Z
	?draw@image_drawable@play@kmint@@UBEXAAVframe@ui@3@@Z
	?draw_image@frame@ui@kmint@@QAEXV?$basic_vector2d@M@math@3@ABVimage@graphics@3@@Z
	?draw_image@frame@ui@kmint@@QAEXV?$basic_vector2d@M@math@3@ABVimage@graphics@3@Vcolor@73@@Z
	?draw_line@frame@ui@kmint@@QAEXV?$basic_vector2d@M@math@3@0@Z
	?draw_rectangle@frame@ui@kmint@@QAEXV?$basic_vector2d@M@math@3@V?$basic_size@M@53@ABVcolor@graphics@3@@Z
	?empty@?$basic_string@DU?$char_traits@D@std@@V?$allocator@D@2@@std@@QBE_NXZ
	?empty@?$vector@V?$unique_ptr@V?$basic_node@Umap_node_info@map@kmint@@@graph@kmint@@U?$default_delete@V?$basic_node@Umap_node_info@map@kmint@@@graph@kmint@@@std@@@std@@V?$allocator@V?$unique_ptr@V?$basic_node@Umap_node_info@map@kmint@@@graph@kmint@@U?$default_delete@V?$basic_node@Umap_node_info@map@kmint@@@graph@kmint@@@std@@@std@@@2@@std@@QBE_NXZ
	?empty@?$vector@V?$unique_ptr@V?$basic_node@Uno_node_info@graph@kmint@@@graph@kmint@@U?$default_delete@V?$basic_node@Uno_node_info@graph@kmint@@@graph@kmint@@@std@@@std@@V?$allocator@V?$unique_ptr@V?$basic_node@Uno_node_info@graph@kmint@@@graph@kmint@@U?$default_delete@V?$basic_node@Uno_node_info@graph@kmint@@@graph@kmint@@@std@@@std@@@2@@std@@QBE_NXZ
	?empty_collisions@actor@play@kmint@@QAEXXZ
	?empty_perceived@actor@play@kmint@@QAEXXZ
	?end@?$_Tree@V?$_Tmap_traits@DUtile_info@map@kmint@@U?$less@D@std@@V?$allocator@U?$pair@$$CBDUtile_info@map@kmint@@@std@@@5@$0A@@std@@@std@@QAE?AV?$_Tree_iterator@V?$_Tree_val@U?$_Tree_simple_types@U?$pair@$$CBDUtile_info@map@kmint@@@std@@@std@@@std@@@2@XZ
	?end@?$_Tree@V?$_Tmap_traits@V?$basic_string@DU?$char_traits@D@std@@V?$allocator@D@2@@std@@Vtexture@sdl@ui@kmint@@U?$less@V?$basic_string@DU?$char_traits@D@std@@V?$allocator@D@2@@std@@@2@V?$allocator@U?$pair@$$CBV?$basic_string@DU?$char_traits@D@std@@V?$allocator@D@2@@std@@Vtexture@sdl@ui@kmint@@@std@@@2@$0A@@std@@@std@@QAE?AV?$_Tree_iterator@V?$_Tree_val@U?$_Tree_simple_types@U?$pair@$$CBV?$basic_string@DU?$char_traits@D@std@@V?$allocator@D@2@@std@@Vtexture@sdl@ui@kmint@@@std@@@std@@@std@@@2@XZ
	?end@?$vector@V?$unique_ptr@Vactor@play@kmint@@U?$default_delete@Vactor@play@kmint@@@std@@@std@@V?$allocator@V?$unique_ptr@Vactor@play@kmint@@U?$default_delete@Vactor@play@kmint@@@std@@@std@@@2@@std@@QAE?AV?$_Vector_iterator@V?$_Vector_val@U?$_Simple_types@V?$unique_ptr@Vactor@play@kmint@@U?$default_delete@Vactor@play@kmint@@@std@@@std@@@std@@@std@@@2@XZ
	?end@?$vector@V?$unique_ptr@Vactor@play@kmint@@U?$default_delete@Vactor@play@kmint@@@std@@@std@@V?$allocator@V?$unique_ptr@Vactor@play@kmint@@U?$default_delete@Vactor@play@kmint@@@std@@@std@@@2@@std@@QBE?AV?$_Vector_const_iterator@V?$_Vector_val@U?$_Simple_types@V?$unique_ptr@Vactor@play@kmint@@U?$default_delete@Vactor@play@kmint@@@std@@@std@@@std@@@std@@@2@XZ
	?end@stage@play@kmint@@QAE?AV?$wrapped_iterator@Vactor@play@kmint@@V?$_Vector_iterator@V?$_Vector_val@U?$_Simple_types@V?$unique_ptr@Vactor@play@kmint@@U?$default_delete@Vactor@play@kmint@@@std@@@std@@@std@@@std@@@std@@@util@3@XZ
	?end@stage@play@kmint@@QBE?AV?$wrapped_iterator@$$CBVactor@play@kmint@@V?$_Vector_const_iterator@V?$_Vector_val@U?$_Simple_types@V?$unique_ptr@Vactor@play@kmint@@U?$default_delete@Vactor@play@kmint@@@std@@@std@@@std@@@std@@@std@@@util@3@XZ
	?end_frame@renderer@ui@kmint@@QAEXXZ
	?eof@?$char_traits@D@std@@SAHXZ
	?eq@?$char_traits@D@std@@SA_NABD0@Z
	?eq_int_type@?$char_traits@D@std@@SA_NABH0@Z
	?erase@?$_Tree@V?$_Tmap_traits@DUtile_info@map@kmint@@U?$less@D@std@@V?$allocator@U?$pair@$$CBDUtile_info@map@kmint@@@std@@@5@$0A@@std@@@std@@QAE?AV?$_Tree_iterator@V?$_Tree_val@U?$_Tree_simple_types@U?$pair@$$CBDUtile_info@map@kmint@@@std@@@std@@@std@@@2@V?$_Tree_const_iterator@V?$_Tree_val@U?$_Tree_simple_types@U?$pair@$$CBDUtile_info@map@kmint@@@std@@@std@@@std@@@2@0@Z
	?erase@?$_Tree@V?$_Tmap_traits@DUtile_info@map@kmint@@U?$less@D@std@@V?$allocator@U?$pair@$$CBDUtile_info@map@kmint@@@std@@@5@$0A@@std@@@std@@QAE?AV?$_Tree_iterator@V?$_Tree_val@U?$_Tree_simple_types@U?$pair@$$CBDUtile_info@map@kmint@@@std@@@std@@@std@@@2@V?$_Tree_const_iterator@V?$_Tree_val@U?$_Tree_simple_types@U?$pair@$$CBDUtile_info@map@kmint@@@std@@@std@@@std@@@2@@Z
	?erase@?$_Tree@V?$_Tmap_traits@V?$basic_string@DU?$char_traits@D@std@@V?$allocator@D@2@@std@@Vtexture@sdl@ui@kmint@@U?$less@V?$basic_string@DU?$char_traits@D@std@@V?$allocator@D@2@@std@@@2@V?$allocator@U?$pair@$$CBV?$basic_string@DU?$char_traits@D@std@@V?$allocator@D@2@@std@@Vtexture@sdl@ui@kmint@@@std@@@2@$0A@@std@@@std@@QAE?AV?$_Tree_iterator@V?$_Tree_val@U?$_Tree_simple_types@U?$pair@$$CBV?$basic_string@DU?$char_traits@D@std@@V?$allocator@D@2@@std@@Vtexture@sdl@ui@kmint@@@std@@@std@@@std@@@2@V?$_Tree_const_iterator@V?$_Tree_val@U?$_Tree_simple_types@U?$pair@$$CBV?$basic_string@DU?$char_traits@D@std@@V?$allocator@D@2@@std@@Vtexture@sdl@ui@kmint@@@std@@@std@@@std@@@2@0@Z
	?erase@?$_Tree@V?$_Tmap_traits@V?$basic_string@DU?$char_traits@D@std@@V?$allocator@D@2@@std@@Vtexture@sdl@ui@kmint@@U?$less@V?$basic_string@DU?$char_traits@D@std@@V?$allocator@D@2@@std@@@2@V?$allocator@U?$pair@$$CBV?$basic_string@DU?$char_traits@D@std@@V?$allocator@D@2@@std@@Vtexture@sdl@ui@kmint@@@std@@@2@$0A@@std@@@std@@QAE?AV?$_Tree_iterator@V?$_Tree_val@U?$_Tree_simple_types@U?$pair@$$CBV?$basic_string@DU?$char_traits@D@std@@V?$allocator@D@2@@std@@Vtexture@sdl@ui@kmint@@@std@@@std@@@std@@@2@V?$_Tree_const_iterator@V?$_Tree_val@U?$_Tree_simple_types@U?$pair@$$CBV?$basic_string@DU?$char_traits@D@std@@V?$allocator@D@2@@std@@Vtexture@sdl@ui@kmint@@@std@@@std@@@std@@@2@@Z
	?erase@?$basic_string@DU?$char_traits@D@std@@V?$allocator@D@2@@std@@QAEAAV12@I@Z
	?erase@?$vector@V?$unique_ptr@Vactor@play@kmint@@U?$default_delete@Vactor@play@kmint@@@std@@@std@@V?$allocator@V?$unique_ptr@Vactor@play@kmint@@U?$default_delete@Vactor@play@kmint@@@std@@@std@@@2@@std@@QAE?AV?$_Vector_iterator@V?$_Vector_val@U?$_Simple_types@V?$unique_ptr@Vactor@play@kmint@@U?$default_delete@Vactor@play@kmint@@@std@@@std@@@std@@@std@@@2@V?$_Vector_const_iterator@V?$_Vector_val@U?$_Simple_types@V?$unique_ptr@Vactor@play@kmint@@U?$default_delete@Vactor@play@kmint@@@std@@@std@@@std@@@std@@@2@0@Z
	?filename@image@graphics@kmint@@QBEABV?$basic_string@DU?$char_traits@D@std@@V?$allocator@D@2@@std@@XZ
	?find@?$_Tree@V?$_Tmap_traits@V?$basic_string@DU?$char_traits@D@std@@V?$allocator@D@2@@std@@Vtexture@sdl@ui@kmint@@U?$less@V?$basic_string@DU?$char_traits@D@std@@V?$allocator@D@2@@std@@@2@V?$allocator@U?$pair@$$CBV?$basic_string@DU?$char_traits@D@std@@V?$allocator@D@2@@std@@Vtexture@sdl@ui@kmint@@@std@@@2@$0A@@std@@@std@@QAE?AV?$_Tree_iterator@V?$_Tree_val@U?$_Tree_simple_types@U?$pair@$$CBV?$basic_string@DU?$char_traits@D@std@@V?$allocator@D@2@@std@@Vtexture@sdl@ui@kmint@@@std@@@std@@@std@@@2@ABV?$basic_string@DU?$char_traits@D@std@@V?$allocator@D@2@@2@@Z
	?get@?$unique_ptr@USDL_Renderer@@V?$destroyer@USDL_Renderer@@@sdl@ui@kmint@@@std@@QBEPAUSDL_Renderer@@XZ
	?get@?$unique_ptr@USDL_Surface@@V?$destroyer@USDL_Surface@@@sdl@ui@kmint@@@std@@QBEPAUSDL_Surface@@XZ
	?get@?$unique_ptr@USDL_Texture@@V?$destroyer@USDL_Texture@@@sdl@ui@kmint@@@std@@QBEPAUSDL_Texture@@XZ
	?get@?$unique_ptr@USDL_Window@@V?$destroyer@USDL_Window@@@sdl@ui@kmint@@@std@@QBEPAUSDL_Window@@XZ
	?get@?$unique_ptr@Uimpl@frame@ui@kmint@@U?$default_delete@Uimpl@frame@ui@kmint@@@std@@@std@@QBEPAUimpl@frame@ui@kmint@@XZ
	?get@?$unique_ptr@V?$basic_edge@Umap_node_info@map@kmint@@@graph@kmint@@U?$default_delete@V?$basic_edge@Umap_node_info@map@kmint@@@graph@kmint@@@std@@@std@@QBEPAV?$basic_edge@Umap_node_info@map@kmint@@@graph@kmint@@XZ
	?get@?$unique_ptr@V?$basic_edge@Uno_node_info@graph@kmint@@@graph@kmint@@U?$default_delete@V?$basic_edge@Uno_node_info@graph@kmint@@@graph@kmint@@@std@@@std@@QBEPAV?$basic_edge@Uno_node_info@graph@kmint@@@graph@kmint@@XZ
	?get@?$unique_ptr@V?$basic_node@Umap_node_info@map@kmint@@@graph@kmint@@U?$default_delete@V?$basic_node@Umap_node_info@map@kmint@@@graph@kmint@@@std@@@std@@QBEPAV?$basic_node@Umap_node_info@map@kmint@@@graph@kmint@@XZ
	?get@?$unique_ptr@V?$basic_node@Uno_node_info@graph@kmint@@@graph@kmint@@U?$default_delete@V?$basic_node@Uno_node_info@graph@kmint@@@graph@kmint@@@std@@@std@@QBEPAV?$basic_node@Uno_node_info@graph@kmint@@@graph@kmint@@XZ
	?get@?$unique_ptr@V_Facet_base@std@@U?$default_delete@V_Facet_base@std@@@2@@std@@QBEPAV_Facet_base@2@XZ
	?get@?$unique_ptr@Vactor@play@kmint@@U?$default_delete@Vactor@play@kmint@@@std@@@std@@QBEPAVactor@play@kmint@@XZ
	?get@?$unique_ptr@Vimpl@app@ui@kmint@@U?$default_delete@Vimpl@app@ui@kmint@@@std@@@std@@QBEPAVimpl@app@ui@kmint@@XZ
	?get@?$unique_ptr@Vimpl@window@ui@kmint@@U?$default_delete@Vimpl@window@ui@kmint@@@std@@@std@@QBEPAVimpl@window@ui@kmint@@XZ
	?get_allocator@?$basic_string@DU?$char_traits@D@std@@V?$allocator@D@2@@std@@QBE?AV?$allocator@D@2@XZ
	?get_deleter@?$_Unique_ptr_base@USDL_Renderer@@V?$destroyer@USDL_Renderer@@@sdl@ui@kmint@@@std@@QAEAAV?$destroyer@USDL_Renderer@@@sdl@ui@kmint@@XZ
	?get_deleter@?$_Unique_ptr_base@USDL_Surface@@V?$destroyer@USDL_Surface@@@sdl@ui@kmint@@@std@@QAEAAV?$destroyer@USDL_Surface@@@sdl@ui@kmint@@XZ
	?get_deleter@?$_Unique_ptr_base@USDL_Texture@@V?$destroyer@USDL_Texture@@@sdl@ui@kmint@@@std@@QAEAAV?$destroyer@USDL_Texture@@@sdl@ui@kmint@@XZ
	?get_deleter@?$_Unique_ptr_base@USDL_Window@@V?$destroyer@USDL_Window@@@sdl@ui@kmint@@@std@@QAEAAV?$destroyer@USDL_Window@@@sdl@ui@kmint@@XZ
	?get_deleter@?$_Unique_ptr_base@Uimpl@frame@ui@kmint@@U?$default_delete@Uimpl@frame@ui@kmint@@@std@@@std@@QAEAAU?$default_delete@Uimpl@frame@ui@kmint@@@2@XZ
	?get_deleter@?$_Unique_ptr_base@V?$basic_edge@Umap_node_info@map@kmint@@@graph@kmint@@U?$default_delete@V?$basic_edge@Umap_node_info@map@kmint@@@graph@kmint@@@std@@@std@@QAEAAU?$default_delete@V?$basic_edge@Umap_node_info@map@kmint@@@graph@kmint@@@2@XZ
	?get_deleter@?$_Unique_ptr_base@V?$basic_edge@Uno_node_info@graph@kmint@@@graph@kmint@@U?$default_delete@V?$basic_edge@Uno_node_info@graph@kmint@@@graph@kmint@@@std@@@std@@QAEAAU?$default_delete@V?$basic_edge@Uno_node_info@graph@kmint@@@graph@kmint@@@2@XZ
	?get_deleter@?$_Unique_ptr_base@V?$basic_node@Umap_node_info@map@kmint@@@graph@kmint@@U?$default_delete@V?$basic_node@Umap_node_info@map@kmint@@@graph@kmint@@@std@@@std@@QAEAAU?$default_delete@V?$basic_node@Umap_node_info@map@kmint@@@graph@kmint@@@2@XZ
	?get_deleter@?$_Unique_ptr_base@V?$basic_node@Uno_node_info@graph@kmint@@@graph@kmint@@U?$default_delete@V?$basic_node@Uno_node_info@graph@kmint@@@graph@kmint@@@std@@@std@@QAEAAU?$default_delete@V?$basic_node@Uno_node_info@graph@kmint@@@graph@kmint@@@2@XZ
	?get_deleter@?$_Unique_ptr_base@V_Facet_base@std@@U?$default_delete@V_Facet_base@std@@@2@@std@@QAEAAU?$default_delete@V_Facet_base@std@@@2@XZ
	?get_deleter@?$_Unique_ptr_base@Vactor@play@kmint@@U?$default_delete@Vactor@play@kmint@@@std@@@std@@QAEAAU?$default_delete@Vactor@play@kmint@@@2@XZ
	?get_deleter@?$_Unique_ptr_base@Vimpl@app@ui@kmint@@U?$default_delete@Vimpl@app@ui@kmint@@@std@@@std@@QAEAAU?$default_delete@Vimpl@app@ui@kmint@@@2@XZ
	?get_deleter@?$_Unique_ptr_base@Vimpl@window@ui@kmint@@U?$default_delete@Vimpl@window@ui@kmint@@@std@@@std@@QAEAAU?$default_delete@Vimpl@window@ui@kmint@@@2@XZ
	?get_or_load@renderer@ui@kmint@@AAEAAVtexture@sdl@23@ABVimage@graphics@3@@Z
	?get_renderer@impl@window@ui@kmint@@QAEAAVrenderer@34@XZ
	?graph@internal_map@map@kmint@@QAEAAV?$basic_graph@Umap_node_info@map@kmint@@@03@XZ
	?green@color@graphics@kmint@@QBEEXZ
	?header@map_info@map@kmint@@QBEABUmap_header@23@XZ
	?height@?$basic_size@H@math@kmint@@QAEXH@Z
	?height@?$basic_size@H@math@kmint@@QBEHXZ
	?height@?$basic_size@M@math@kmint@@QBEMXZ
	?height@internal_map@map@kmint@@QBEHXZ
	?height@surface@sdl@ui@kmint@@QBEMXZ
	?height@texture@sdl@ui@kmint@@QBEMXZ
	?info@internal_map@map@kmint@@QAEAAVmap_info@23@XZ
	?key_comp@?$_Tree@V?$_Tmap_traits@DUtile_info@map@kmint@@U?$less@D@std@@V?$allocator@U?$pair@$$CBDUtile_info@map@kmint@@@std@@@5@$0A@@std@@@std@@QBE?AU?$less@D@2@XZ
	?length@?$char_traits@D@std@@SAIQBD@Z
	?log2@@YAMM@Z
	?lower_bound@?$_Tree@V?$_Tmap_traits@DUtile_info@map@kmint@@U?$less@D@std@@V?$allocator@U?$pair@$$CBDUtile_info@map@kmint@@@std@@@5@$0A@@std@@@std@@QAE?AV?$_Tree_iterator@V?$_Tree_val@U?$_Tree_simple_types@U?$pair@$$CBDUtile_info@map@kmint@@@std@@@std@@@std@@@2@ABD@Z
	?lower_bound@?$_Tree@V?$_Tmap_traits@V?$basic_string@DU?$char_traits@D@std@@V?$allocator@D@2@@std@@Vtexture@sdl@ui@kmint@@U?$less@V?$basic_string@DU?$char_traits@D@std@@V?$allocator@D@2@@std@@@2@V?$allocator@U?$pair@$$CBV?$basic_string@DU?$char_traits@D@std@@V?$allocator@D@2@@std@@Vtexture@sdl@ui@kmint@@@std@@@2@$0A@@std@@@std@@QAE?AV?$_Tree_iterator@V?$_Tree_val@U?$_Tree_simple_types@U?$pair@$$CBV?$basic_string@DU?$char_traits@D@std@@V?$allocator@D@2@@std@@Vtexture@sdl@ui@kmint@@@std@@@std@@@std@@@2@ABV?$basic_string@DU?$char_traits@D@std@@V?$allocator@D@2@@2@@Z
	?max@?$mersenne_twister_engine@I$0CA@$0CHA@$0BIN@$0BP@$0JJAILANP@$0L@$0PPPPPPPP@$06$0JNCMFGIA@$0P@$0OPMGAAAA@$0BC@$0GMAHIJGF@@std@@SAIXZ
	?max@?$numeric_limits@H@std@@SAHXZ
	?max@?$numeric_limits@M@std@@SAMXZ
	?max@?$numeric_limits@_J@std@@SA_JXZ
	?max_size@?$_Default_allocator_traits@V?$allocator@D@std@@@std@@SAIABV?$allocator@D@2@@Z
	?max_size@?$_Default_allocator_traits@V?$allocator@H@std@@@std@@SAIABV?$allocator@H@2@@Z
	?max_size@?$_Default_allocator_traits@V?$allocator@PAVactor@play@kmint@@@std@@@std@@SAIABV?$allocator@PAVactor@play@kmint@@@2@@Z
	?max_size@?$_Default_allocator_traits@V?$allocator@U?$_Tree_node@U?$pair@$$CBDUtile_info@map@kmint@@@std@@PAX@std@@@std@@@std@@SAIABV?$allocator@U?$_Tree_node@U?$pair@$$CBDUtile_info@map@kmint@@@std@@PAX@std@@@2@@Z
	?max_size@?$_Default_allocator_traits@V?$allocator@U?$_Tree_node@U?$pair@$$CBV?$basic_string@DU?$char_traits@D@std@@V?$allocator@D@2@@std@@Vtexture@sdl@ui@kmint@@@std@@PAX@std@@@std@@@std@@SAIABV?$allocator@U?$_Tree_node@U?$pair@$$CBV?$basic_string@DU?$char_traits@D@std@@V?$allocator@D@2@@std@@Vtexture@sdl@ui@kmint@@@std@@PAX@std@@@2@@Z
	?max_size@?$_Default_allocator_traits@V?$allocator@V?$unique_ptr@V?$basic_edge@Umap_node_info@map@kmint@@@graph@kmint@@U?$default_delete@V?$basic_edge@Umap_node_info@map@kmint@@@graph@kmint@@@std@@@std@@@std@@@std@@SAIABV?$allocator@V?$unique_ptr@V?$basic_edge@Umap_node_info@map@kmint@@@graph@kmint@@U?$default_delete@V?$basic_edge@Umap_node_info@map@kmint@@@graph@kmint@@@std@@@std@@@2@@Z
	?max_size@?$_Default_allocator_traits@V?$allocator@V?$unique_ptr@V?$basic_edge@Uno_node_info@graph@kmint@@@graph@kmint@@U?$default_delete@V?$basic_edge@Uno_node_info@graph@kmint@@@graph@kmint@@@std@@@std@@@std@@@std@@SAIABV?$allocator@V?$unique_ptr@V?$basic_edge@Uno_node_info@graph@kmint@@@graph@kmint@@U?$default_delete@V?$basic_edge@Uno_node_info@graph@kmint@@@graph@kmint@@@std@@@std@@@2@@Z
	?max_size@?$_Default_allocator_traits@V?$allocator@V?$unique_ptr@V?$basic_node@Umap_node_info@map@kmint@@@graph@kmint@@U?$default_delete@V?$basic_node@Umap_node_info@map@kmint@@@graph@kmint@@@std@@@std@@@std@@@std@@SAIABV?$allocator@V?$unique_ptr@V?$basic_node@Umap_node_info@map@kmint@@@graph@kmint@@U?$default_delete@V?$basic_node@Umap_node_info@map@kmint@@@graph@kmint@@@std@@@std@@@2@@Z
	?max_size@?$_Default_allocator_traits@V?$allocator@V?$unique_ptr@V?$basic_node@Uno_node_info@graph@kmint@@@graph@kmint@@U?$default_delete@V?$basic_node@Uno_node_info@graph@kmint@@@graph@kmint@@@std@@@std@@@std@@@std@@SAIABV?$allocator@V?$unique_ptr@V?$basic_node@Uno_node_info@graph@kmint@@@graph@kmint@@U?$default_delete@V?$basic_node@Uno_node_info@graph@kmint@@@graph@kmint@@@std@@@std@@@2@@Z
	?max_size@?$_Tree@V?$_Tmap_traits@DUtile_info@map@kmint@@U?$less@D@std@@V?$allocator@U?$pair@$$CBDUtile_info@map@kmint@@@std@@@5@$0A@@std@@@std@@QBEIXZ
	?max_size@?$_Tree@V?$_Tmap_traits@V?$basic_string@DU?$char_traits@D@std@@V?$allocator@D@2@@std@@Vtexture@sdl@ui@kmint@@U?$less@V?$basic_string@DU?$char_traits@D@std@@V?$allocator@D@2@@std@@@2@V?$allocator@U?$pair@$$CBV?$basic_string@DU?$char_traits@D@std@@V?$allocator@D@2@@std@@Vtexture@sdl@ui@kmint@@@std@@@2@$0A@@std@@@std@@QBEIXZ
	?max_size@?$basic_string@DU?$char_traits@D@std@@V?$allocator@D@2@@std@@QBEIXZ
	?max_size@?$vector@DV?$allocator@D@std@@@std@@QBEIXZ
	?max_size@?$vector@HV?$allocator@H@std@@@std@@QBEIXZ
	?max_size@?$vector@PAVactor@play@kmint@@V?$allocator@PAVactor@play@kmint@@@std@@@std@@QBEIXZ
	?max_size@?$vector@V?$unique_ptr@V?$basic_edge@Umap_node_info@map@kmint@@@graph@kmint@@U?$default_delete@V?$basic_edge@Umap_node_info@map@kmint@@@graph@kmint@@@std@@@std@@V?$allocator@V?$unique_ptr@V?$basic_edge@Umap_node_info@map@kmint@@@graph@kmint@@U?$default_delete@V?$basic_edge@Umap_node_info@map@kmint@@@graph@kmint@@@std@@@std@@@2@@std@@QBEIXZ
	?max_size@?$vector@V?$unique_ptr@V?$basic_edge@Uno_node_info@graph@kmint@@@graph@kmint@@U?$default_delete@V?$basic_edge@Uno_node_info@graph@kmint@@@graph@kmint@@@std@@@std@@V?$allocator@V?$unique_ptr@V?$basic_edge@Uno_node_info@graph@kmint@@@graph@kmint@@U?$default_delete@V?$basic_edge@Uno_node_info@graph@kmint@@@graph@kmint@@@std@@@std@@@2@@std@@QBEIXZ
	?max_size@?$vector@V?$unique_ptr@V?$basic_node@Umap_node_info@map@kmint@@@graph@kmint@@U?$default_delete@V?$basic_node@Umap_node_info@map@kmint@@@graph@kmint@@@std@@@std@@V?$allocator@V?$unique_ptr@V?$basic_node@Umap_node_info@map@kmint@@@graph@kmint@@U?$default_delete@V?$basic_node@Umap_node_info@map@kmint@@@graph@kmint@@@std@@@std@@@2@@std@@QBEIXZ
	?max_size@?$vector@V?$unique_ptr@V?$basic_node@Uno_node_info@graph@kmint@@@graph@kmint@@U?$default_delete@V?$basic_node@Uno_node_info@graph@kmint@@@graph@kmint@@@std@@@std@@V?$allocator@V?$unique_ptr@V?$basic_node@Uno_node_info@graph@kmint@@@graph@kmint@@U?$default_delete@V?$basic_node@Uno_node_info@graph@kmint@@@graph@kmint@@@std@@@std@@@2@@std@@QBEIXZ
	?min@?$mersenne_twister_engine@I$0CA@$0CHA@$0BIN@$0BP@$0JJAILANP@$0L@$0PPPPPPPP@$06$0JNCMFGIA@$0P@$0OPMGAAAA@$0BC@$0GMAHIJGF@@std@@SAIXZ
	?move@?$char_traits@D@std@@SAPADQADQBDI@Z
	?next@event_source@events@ui@kmint@@QBE?AVevent@234@XZ
	?not_eof@?$char_traits@D@std@@SAHABH@Z
	?num_nodes@?$basic_graph@Umap_node_info@map@kmint@@@graph@kmint@@QBEIXZ
	?num_nodes@?$basic_graph@Uno_node_info@graph@kmint@@@graph@kmint@@QBEIXZ
	?number_of_tiles@map_header@map@kmint@@QBEHXZ
	?overflow@?$basic_stringbuf@DU?$char_traits@D@std@@V?$allocator@D@2@@std@@MAEHH@Z
	?pbackfail@?$basic_stringbuf@DU?$char_traits@D@std@@V?$allocator@D@2@@std@@MAEHH@Z
	?pointer_to@?$pointer_traits@PAD@std@@SAPADAAD@Z
	?pointer_to@?$pointer_traits@PAU?$pair@$$CBDUtile_info@map@kmint@@@std@@@std@@SAPAU?$pair@$$CBDUtile_info@map@kmint@@@2@AAU32@@Z
	?pointer_to@?$pointer_traits@PAU?$pair@$$CBV?$basic_string@DU?$char_traits@D@std@@V?$allocator@D@2@@std@@Vtexture@sdl@ui@kmint@@@std@@@std@@SAPAU?$pair@$$CBV?$basic_string@DU?$char_traits@D@std@@V?$allocator@D@2@@std@@Vtexture@sdl@ui@kmint@@@2@AAU32@@Z
	?push_back@?$basic_string@DU?$char_traits@D@std@@V?$allocator@D@2@@std@@QAEXD@Z
	?push_back@?$vector@DV?$allocator@D@std@@@std@@QAEXABD@Z
	?push_back@?$vector@V?$unique_ptr@V?$basic_edge@Umap_node_info@map@kmint@@@graph@kmint@@U?$default_delete@V?$basic_edge@Umap_node_info@map@kmint@@@graph@kmint@@@std@@@std@@V?$allocator@V?$unique_ptr@V?$basic_edge@Umap_node_info@map@kmint@@@graph@kmint@@U?$default_delete@V?$basic_edge@Umap_node_info@map@kmint@@@graph@kmint@@@std@@@std@@@2@@std@@QAEX$$QAV?$unique_ptr@V?$basic_edge@Umap_node_info@map@kmint@@@graph@kmint@@U?$default_delete@V?$basic_edge@Umap_node_info@map@kmint@@@graph@kmint@@@std@@@2@@Z
	?push_back@?$vector@V?$unique_ptr@V?$basic_edge@Uno_node_info@graph@kmint@@@graph@kmint@@U?$default_delete@V?$basic_edge@Uno_node_info@graph@kmint@@@graph@kmint@@@std@@@std@@V?$allocator@V?$unique_ptr@V?$basic_edge@Uno_node_info@graph@kmint@@@graph@kmint@@U?$default_delete@V?$basic_edge@Uno_node_info@graph@kmint@@@graph@kmint@@@std@@@std@@@2@@std@@QAEX$$QAV?$unique_ptr@V?$basic_edge@Uno_node_info@graph@kmint@@@graph@kmint@@U?$default_delete@V?$basic_edge@Uno_node_info@graph@kmint@@@graph@kmint@@@std@@@2@@Z
	?random_int@kmint@@YAHHH@Z
	?random_scalar@kmint@@YAMMM@Z
	?read_graph@graph@kmint@@YA?AV?$basic_graph@Uno_node_info@graph@kmint@@@12@AAV?$basic_istream@DU?$char_traits@D@std@@@std@@@Z
	?read_map@map@kmint@@YA?AV112@AAV?$basic_istream@DU?$char_traits@D@std@@@std@@@Z
	?read_map@map@kmint@@YA?AV112@ABV?$basic_string@DU?$char_traits@D@std@@V?$allocator@D@2@@std@@@Z
	?read_map@map@kmint@@YA?AV112@PBD@Z
	?read_map_header@map@kmint@@YA?AUmap_header@12@AAV?$basic_istream@DU?$char_traits@D@std@@@std@@@Z
	?read_tile_info@map@kmint@@YA?AUtile_info@12@AAV?$basic_istream@DU?$char_traits@D@std@@@std@@@Z
	?red@color@graphics@kmint@@QBEEXZ
	?register_collision@actor@play@kmint@@QAEXAAV123@@Z
	?register_perceived@actor@play@kmint@@QAEXAAV123@@Z
	?release@?$unique_ptr@USDL_Texture@@V?$destroyer@USDL_Texture@@@sdl@ui@kmint@@@std@@QAEPAUSDL_Texture@@XZ
	?release@?$unique_ptr@Uimpl@frame@ui@kmint@@U?$default_delete@Uimpl@frame@ui@kmint@@@std@@@std@@QAEPAUimpl@frame@ui@kmint@@XZ
	?release@?$unique_ptr@V?$basic_edge@Umap_node_info@map@kmint@@@graph@kmint@@U?$default_delete@V?$basic_edge@Umap_node_info@map@kmint@@@graph@kmint@@@std@@@std@@QAEPAV?$basic_edge@Umap_node_info@map@kmint@@@graph@kmint@@XZ
	?release@?$unique_ptr@V?$basic_edge@Uno_node_info@graph@kmint@@@graph@kmint@@U?$default_delete@V?$basic_edge@Uno_node_info@graph@kmint@@@graph@kmint@@@std@@@std@@QAEPAV?$basic_edge@Uno_node_info@graph@kmint@@@graph@kmint@@XZ
	?release@?$unique_ptr@V?$basic_node@Umap_node_info@map@kmint@@@graph@kmint@@U?$default_delete@V?$basic_node@Umap_node_info@map@kmint@@@graph@kmint@@@std@@@std@@QAEPAV?$basic_node@Umap_node_info@map@kmint@@@graph@kmint@@XZ
	?release@?$unique_ptr@V?$basic_node@Uno_node_info@graph@kmint@@@graph@kmint@@U?$default_delete@V?$basic_node@Uno_node_info@graph@kmint@@@graph@kmint@@@std@@@std@@QAEPAV?$basic_node@Uno_node_info@graph@kmint@@@graph@kmint@@XZ
	?release@?$unique_ptr@V_Facet_base@std@@U?$default_delete@V_Facet_base@std@@@2@@std@@QAEPAV_Facet_base@2@XZ
	?release@?$unique_ptr@Vactor@play@kmint@@U?$default_delete@Vactor@play@kmint@@@std@@@std@@QAEPAVactor@play@kmint@@XZ
	?release@?$unique_ptr@Vimpl@app@ui@kmint@@U?$default_delete@Vimpl@app@ui@kmint@@@std@@@std@@QAEPAVimpl@app@ui@kmint@@XZ
	?release@?$unique_ptr@Vimpl@window@ui@kmint@@U?$default_delete@Vimpl@window@ui@kmint@@@std@@@std@@QAEPAVimpl@window@ui@kmint@@XZ
	?remove_actor@stage@play@kmint@@QAEXABVactor@23@@Z
	?render@sdl@ui@kmint@@YAXPAUSDL_Renderer@@ABVtexture@123@V?$basic_vector2d@M@math@3@M@Z
	?render@sdl@ui@kmint@@YAXPAUSDL_Renderer@@ABVtexture@123@V?$basic_vector2d@M@math@3@MVcolor@graphics@3@@Z
	?render_color@frame@ui@kmint@@QAEXABVcolor@graphics@3@@Z
	?render_color@frame@ui@kmint@@QBE?AVcolor@graphics@3@XZ
	?render_color@renderer@ui@kmint@@QAEXABVcolor@graphics@3@@Z
	?render_color@renderer@ui@kmint@@QBE?AVcolor@graphics@3@XZ
	?render_image@renderer@ui@kmint@@QAEXV?$basic_vector2d@M@math@3@ABVimage@graphics@3@@Z
	?render_image@renderer@ui@kmint@@QAEXV?$basic_vector2d@M@math@3@ABVimage@graphics@3@Vcolor@73@@Z
	?render_line@renderer@ui@kmint@@QAEXV?$basic_vector2d@M@math@3@0@Z
	?render_rectangle@renderer@ui@kmint@@QAEXV?$basic_vector2d@M@math@3@V?$basic_size@M@53@@Z
	?reserve@?$basic_string@DU?$char_traits@D@std@@V?$allocator@D@2@@std@@QAEXI@Z
	?reserve@?$vector@DV?$allocator@D@std@@@std@@QAEXI@Z
	?reset@?$unique_ptr@Uimpl@frame@ui@kmint@@U?$default_delete@Uimpl@frame@ui@kmint@@@std@@@std@@QAEXPAUimpl@frame@ui@kmint@@@Z
	?reset@?$unique_ptr@Vactor@play@kmint@@U?$default_delete@Vactor@play@kmint@@@std@@@std@@QAEXPAVactor@play@kmint@@@Z
	?reset@?$unique_ptr@Vimpl@app@ui@kmint@@U?$default_delete@Vimpl@app@ui@kmint@@@std@@@std@@QAEXPAVimpl@app@ui@kmint@@@Z
	?reset@?$unique_ptr@Vimpl@window@ui@kmint@@U?$default_delete@Vimpl@window@ui@kmint@@@std@@@std@@QAEXPAVimpl@window@ui@kmint@@@Z
	?scale@image@graphics@kmint@@QBEMXZ
	?seed@?$mersenne_twister@I$0CA@$0CHA@$0BIN@$0BP@$0JJAILANP@$0L@$06$0JNCMFGIA@$0P@$0OPMGAAAA@$0BC@@std@@QAEXII@Z
	?seekoff@?$basic_stringbuf@DU?$char_traits@D@std@@V?$allocator@D@2@@std@@MAE?AV?$fpos@U_Mbstatet@@@2@_JHH@Z
	?seekpos@?$basic_stringbuf@DU?$char_traits@D@std@@V?$allocator@D@2@@std@@MAE?AV?$fpos@U_Mbstatet@@@2@V32@H@Z
	?sees@play@kmint@@YA_NABVactor@12@0@Z
	?select_on_container_copy_construction@?$_Default_allocator_traits@V?$allocator@D@std@@@std@@SA?AV?$allocator@D@2@ABV32@@Z
	?select_on_container_copy_construction@?$_Default_allocator_traits@V?$allocator@U?$_Tree_node@U?$pair@$$CBDUtile_info@map@kmint@@@std@@PAX@std@@@std@@@std@@SA?AV?$allocator@U?$_Tree_node@U?$pair@$$CBDUtile_info@map@kmint@@@std@@PAX@std@@@2@ABV32@@Z
	?size@?$_Tree@V?$_Tmap_traits@DUtile_info@map@kmint@@U?$less@D@std@@V?$allocator@U?$pair@$$CBDUtile_info@map@kmint@@@std@@@5@$0A@@std@@@std@@QBEIXZ
	?size@?$basic_string@DU?$char_traits@D@std@@V?$allocator@D@2@@std@@QBEIXZ
	?size@?$vector@DV?$allocator@D@std@@@std@@QBEIXZ
	?size@?$vector@HV?$allocator@H@std@@@std@@QBEIXZ
	?size@?$vector@PAVactor@play@kmint@@V?$allocator@PAVactor@play@kmint@@@std@@@std@@QBEIXZ
	?size@?$vector@V?$unique_ptr@V?$basic_edge@Umap_node_info@map@kmint@@@graph@kmint@@U?$default_delete@V?$basic_edge@Umap_node_info@map@kmint@@@graph@kmint@@@std@@@std@@V?$allocator@V?$unique_ptr@V?$basic_edge@Umap_node_info@map@kmint@@@graph@kmint@@U?$default_delete@V?$basic_edge@Umap_node_info@map@kmint@@@graph@kmint@@@std@@@std@@@2@@std@@QBEIXZ
	?size@?$vector@V?$unique_ptr@V?$basic_edge@Uno_node_info@graph@kmint@@@graph@kmint@@U?$default_delete@V?$basic_edge@Uno_node_info@graph@kmint@@@graph@kmint@@@std@@@std@@V?$allocator@V?$unique_ptr@V?$basic_edge@Uno_node_info@graph@kmint@@@graph@kmint@@U?$default_delete@V?$basic_edge@Uno_node_info@graph@kmint@@@graph@kmint@@@std@@@std@@@2@@std@@QBEIXZ
	?size@?$vector@V?$unique_ptr@V?$basic_node@Umap_node_info@map@kmint@@@graph@kmint@@U?$default_delete@V?$basic_node@Umap_node_info@map@kmint@@@graph@kmint@@@std@@@std@@V?$allocator@V?$unique_ptr@V?$basic_node@Umap_node_info@map@kmint@@@graph@kmint@@U?$default_delete@V?$basic_node@Umap_node_info@map@kmint@@@graph@kmint@@@std@@@std@@@2@@std@@QBEIXZ
	?size@?$vector@V?$unique_ptr@V?$basic_node@Uno_node_info@graph@kmint@@@graph@kmint@@U?$default_delete@V?$basic_node@Uno_node_info@graph@kmint@@@graph@kmint@@@std@@@std@@V?$allocator@V?$unique_ptr@V?$basic_node@Uno_node_info@graph@kmint@@@graph@kmint@@U?$default_delete@V?$basic_node@Uno_node_info@graph@kmint@@@graph@kmint@@@std@@@std@@@2@@std@@QBEIXZ
	?sqrt@@YAMM@Z
	?to_char_type@?$char_traits@D@std@@SADABH@Z
	?to_int_type@?$char_traits@D@std@@SAHABD@Z
	?to_tile_index@internal_map@map@kmint@@QBEHHH@Z
	?underflow@?$basic_stringbuf@DU?$char_traits@D@std@@V?$allocator@D@2@@std@@MAEHXZ
	?unwrap@texture@sdl@ui@kmint@@QBEPAUSDL_Texture@@XZ
	?what@exception@std@@UBEPBDXZ
	?width@?$basic_size@H@math@kmint@@QAEXH@Z
	?width@?$basic_size@H@math@kmint@@QBEHXZ
	?width@?$basic_size@M@math@kmint@@QBEMXZ
	?width@internal_map@map@kmint@@QBEHXZ
	?width@surface@sdl@ui@kmint@@QBEMXZ
	?width@texture@sdl@ui@kmint@@QBEMXZ
	?x@?$basic_vector2d@M@math@kmint@@QAEXM@Z
	?x@?$basic_vector2d@M@math@kmint@@QBEMXZ
	?y@?$basic_vector2d@M@math@kmint@@QAEXM@Z
	?y@?$basic_vector2d@M@math@kmint@@QBEMXZ
	acosf
	asinf
	atan2f
	atanf
	ceilf
	sqrtf
